

Microchip Technology PIC LITE Macro Assembler V1.45 build -152302408 
                                                                                               Fri Jul 12 04:20:16 2019

Microchip Technology Omniscient Code Generator v1.45 (Free mode) build 201711160504
     1                           	processor	16F1938
     2                           	opt	pw 120
     3                           	opt	lm
     4                           	psect	cinit,global,class=CODE,merge=1,delta=2
     5                           	psect	cstackCOMMON,global,class=COMMON,space=1,delta=1
     6                           	psect	maintext,global,class=CODE,merge=1,split=1,delta=2
     7                           	psect	text1,local,class=CODE,merge=1,delta=2
     8                           	dabs	1,0x7E,2
     9  0000                     
    10                           ; Version 1.45
    11                           ; Generated 16/11/2017 GMT
    12                           ; 
    13                           ; Copyright © 2017, Microchip Technology Inc. and its subsidiaries ("Microchip")
    14                           ; All rights reserved.
    15                           ; 
    16                           ; This software is developed by Microchip Technology Inc. and its subsidiaries ("Microch
      +                          ip").
    17                           ; 
    18                           ; Redistribution and use in source and binary forms, with or without modification, are
    19                           ; permitted provided that the following conditions are met:
    20                           ; 
    21                           ;     1. Redistributions of source code must retain the above copyright notice, this lis
      +                          t of
    22                           ;        conditions and the following disclaimer.
    23                           ; 
    24                           ;     2. Redistributions in binary form must reproduce the above copyright notice, this 
      +                          list
    25                           ;        of conditions and the following disclaimer in the documentation and/or other
    26                           ;        materials provided with the distribution.
    27                           ; 
    28                           ;     3. Microchip's name may not be used to endorse or promote products derived from th
      +                          is
    29                           ;        software without specific prior written permission.
    30                           ; 
    31                           ; THIS SOFTWARE IS PROVIDED BY MICROCHIP "AS IS" AND ANY EXPRESS OR IMPLIED WARRANTIES,
    32                           ; INCLUDING, BUT NOT LIMITED TO, THE IMPLIED WARRANTIES OF MERCHANTABILITY AND FITNESS F
      +                          OR
    33                           ; PURPOSE ARE DISCLAIMED.  IN NO EVENT SHALL MICROCHIP BE LIABLE FOR ANY DIRECT, INDIREC
      +                          T,
    34                           ; INCIDENTAL, SPECIAL, EXEMPLARY, OR CONSEQUENTIAL DAMAGES (INCLUDING BUT NOT LIMITED TO
    35                           ; PROCUREMENT OF SUBSTITUTE GOODS OR SERVICES; LOSS OF USE, DATA OR PROFITS; OR BUSINESS
    36                           ; INTERRUPTION) HOWSOEVER CAUSED AND ON ANY THEORY OF LIABILITY, WHETHER IN CONTRACT, ST
      +                          RICT
    37                           ; LIABILITY, OR TORT (INCLUDING NEGLIGENCE OR OTHERWISE) ARISING IN ANY WAY OUT OF THE U
      +                          SE OF
    38                           ; THIS SOFTWARE, EVEN IF ADVISED OF THE POSSIBILITY OF SUCH DAMAGE.
    39                           ; 
    40                           ; 
    41                           ; Code-generator required, PIC16F1938 Definitions
    42                           ; 
    43                           ; SFR Addresses
    44  0000                     	;# 
    45  0001                     	;# 
    46  0002                     	;# 
    47  0003                     	;# 
    48  0004                     	;# 
    49  0005                     	;# 
    50  0006                     	;# 
    51  0007                     	;# 
    52  0008                     	;# 
    53  0009                     	;# 
    54  000A                     	;# 
    55  000B                     	;# 
    56  000C                     	;# 
    57  000D                     	;# 
    58  000E                     	;# 
    59  0010                     	;# 
    60  0011                     	;# 
    61  0012                     	;# 
    62  0013                     	;# 
    63  0015                     	;# 
    64  0016                     	;# 
    65  0016                     	;# 
    66  0017                     	;# 
    67  0018                     	;# 
    68  0019                     	;# 
    69  001A                     	;# 
    70  001B                     	;# 
    71  001C                     	;# 
    72  001E                     	;# 
    73  001F                     	;# 
    74  008C                     	;# 
    75  008D                     	;# 
    76  008E                     	;# 
    77  0090                     	;# 
    78  0091                     	;# 
    79  0092                     	;# 
    80  0093                     	;# 
    81  0095                     	;# 
    82  0096                     	;# 
    83  0097                     	;# 
    84  0098                     	;# 
    85  0099                     	;# 
    86  009A                     	;# 
    87  009B                     	;# 
    88  009B                     	;# 
    89  009C                     	;# 
    90  009D                     	;# 
    91  009E                     	;# 
    92  010C                     	;# 
    93  010D                     	;# 
    94  010E                     	;# 
    95  0110                     	;# 
    96  0111                     	;# 
    97  0112                     	;# 
    98  0113                     	;# 
    99  0114                     	;# 
   100  0115                     	;# 
   101  0116                     	;# 
   102  0117                     	;# 
   103  0118                     	;# 
   104  0119                     	;# 
   105  011A                     	;# 
   106  011B                     	;# 
   107  011D                     	;# 
   108  018C                     	;# 
   109  018D                     	;# 
   110  0191                     	;# 
   111  0191                     	;# 
   112  0192                     	;# 
   113  0193                     	;# 
   114  0193                     	;# 
   115  0193                     	;# 
   116  0194                     	;# 
   117  0195                     	;# 
   118  0196                     	;# 
   119  0199                     	;# 
   120  019A                     	;# 
   121  019B                     	;# 
   122  019B                     	;# 
   123  019B                     	;# 
   124  019B                     	;# 
   125  019C                     	;# 
   126  019C                     	;# 
   127  019D                     	;# 
   128  019E                     	;# 
   129  019F                     	;# 
   130  020D                     	;# 
   131  0210                     	;# 
   132  0211                     	;# 
   133  0212                     	;# 
   134  0213                     	;# 
   135  0214                     	;# 
   136  0215                     	;# 
   137  0215                     	;# 
   138  0216                     	;# 
   139  0217                     	;# 
   140  0291                     	;# 
   141  0291                     	;# 
   142  0292                     	;# 
   143  0293                     	;# 
   144  0294                     	;# 
   145  0295                     	;# 
   146  0295                     	;# 
   147  0296                     	;# 
   148  0298                     	;# 
   149  0298                     	;# 
   150  0299                     	;# 
   151  029A                     	;# 
   152  029B                     	;# 
   153  029C                     	;# 
   154  029C                     	;# 
   155  029D                     	;# 
   156  029E                     	;# 
   157  029F                     	;# 
   158  0311                     	;# 
   159  0311                     	;# 
   160  0312                     	;# 
   161  0313                     	;# 
   162  0314                     	;# 
   163  0315                     	;# 
   164  0315                     	;# 
   165  0316                     	;# 
   166  0318                     	;# 
   167  0318                     	;# 
   168  0319                     	;# 
   169  031A                     	;# 
   170  031C                     	;# 
   171  031C                     	;# 
   172  031D                     	;# 
   173  031E                     	;# 
   174  0394                     	;# 
   175  0395                     	;# 
   176  0396                     	;# 
   177  0415                     	;# 
   178  0416                     	;# 
   179  0417                     	;# 
   180  041C                     	;# 
   181  041D                     	;# 
   182  041E                     	;# 
   183  0791                     	;# 
   184  0792                     	;# 
   185  0793                     	;# 
   186  0794                     	;# 
   187  0795                     	;# 
   188  0798                     	;# 
   189  0799                     	;# 
   190  07A0                     	;# 
   191  07A1                     	;# 
   192  07A3                     	;# 
   193  07A4                     	;# 
   194  07A6                     	;# 
   195  07A7                     	;# 
   196  07A9                     	;# 
   197  07AA                     	;# 
   198  0FE4                     	;# 
   199  0FE5                     	;# 
   200  0FE6                     	;# 
   201  0FE7                     	;# 
   202  0FE8                     	;# 
   203  0FE9                     	;# 
   204  0FEA                     	;# 
   205  0FEB                     	;# 
   206  0FED                     	;# 
   207  0FEE                     	;# 
   208  0FEF                     	;# 
   209  000E                     _PORTC	set	14
   210  000D                     _PORTB	set	13
   211  000C                     _PORTA	set	12
   212  006F                     _RB7	set	111
   213  008E                     _TRISC	set	142
   214  008D                     _TRISB	set	141
   215  008C                     _TRISA	set	140
   216  0095                     _OPTION_REG	set	149
   217  0099                     _OSCCON	set	153
   218  018D                     _ANSELB	set	397
   219  018C                     _ANSELA	set	396
   220  020D                     _WPUB	set	525
   221                           
   222                           ; #config settings
   223  0000                     
   224                           	psect	cinit
   225  07FD                     start_initialization:	
   226  07FD                     __initialization:	
   227  07FD                     end_of_initialization:	
   228                           ;End of C runtime variable initialization code
   229                           
   230  07FD                     __end_of__initialization:	
   231  07FD  0020               	movlb	0
   232  07FE  3187  2F21         	ljmp	_main	;jump to C main() function
   233                           
   234                           	psect	cstackCOMMON
   235  0070                     __pcstackCOMMON:	
   236  0070                     ?_Delay_ms:	
   237  0070                     ?_main:	
   238                           ; 1 bytes @ 0x0
   239                           
   240  0070                     Delay_ms@DELAY_CNT:	
   241                           ; 1 bytes @ 0x0
   242                           
   243                           
   244                           ; 2 bytes @ 0x0
   245  0070                     	ds	2
   246  0072                     ??_Delay_ms:	
   247                           
   248                           ; 1 bytes @ 0x2
   249  0072                     	ds	1
   250  0073                     Delay_ms@i:	
   251                           
   252                           ; 2 bytes @ 0x3
   253  0073                     	ds	2
   254  0075                     ??_main:	
   255                           
   256                           ; 1 bytes @ 0x5
   257  0075                     	ds	1
   258  0076                     main@t:	
   259                           
   260                           ; 2 bytes @ 0x6
   261  0076                     	ds	2
   262  0078                     main@i:	
   263                           
   264                           ; 2 bytes @ 0x8
   265  0078                     	ds	2
   266                           
   267                           	psect	maintext
   268  0721                     __pmaintext:	
   269 ;;
   270 ;;Main: autosize = 0, tempsize = 1, incstack = 0, save=0
   271 ;;
   272 ;; *************** function _main *****************
   273 ;; Defined at:
   274 ;;		line 50 in file "usb_switcher.c"
   275 ;; Parameters:    Size  Location     Type
   276 ;;		None
   277 ;; Auto vars:     Size  Location     Type
   278 ;;  i               2    8[COMMON] int 
   279 ;;  t               2    6[COMMON] int 
   280 ;; Return value:  Size  Location     Type
   281 ;;                  1    wreg      void 
   282 ;; Registers used:
   283 ;;		wreg, status,2, status,0, pclath, cstack
   284 ;; Tracked objects:
   285 ;;		On entry : B1F/0
   286 ;;		On exit  : 0/0
   287 ;;		Unchanged: 0/0
   288 ;; Data sizes:     COMMON   BANK0   BANK1   BANK2   BANK3   BANK4   BANK5   BANK6   BANK7   BANK8   BANK9  BANK10  BANK1
      +1  BANK12
   289 ;;      Params:         0       0       0       0       0       0       0       0       0       0       0       0       
      +0       0
   290 ;;      Locals:         4       0       0       0       0       0       0       0       0       0       0       0       
      +0       0
   291 ;;      Temps:          1       0       0       0       0       0       0       0       0       0       0       0       
      +0       0
   292 ;;      Totals:         5       0       0       0       0       0       0       0       0       0       0       0       
      +0       0
   293 ;;Total ram usage:        5 bytes
   294 ;; Hardware stack levels required when called:    1
   295 ;; This function calls:
   296 ;;		_Delay_ms
   297 ;; This function is called by:
   298 ;;		Startup code after reset
   299 ;; This function uses a non-reentrant model
   300 ;;
   301                           
   302                           
   303                           ;psect for function _main
   304  0721                     _main:	
   305                           
   306                           ;usb_switcher.c: 53: int i = 0;
   307                           
   308                           ;incstack = 0
   309                           ; Regs used in _main: [wreg+status,2+status,0+pclath+cstack]
   310  0721  01F8               	clrf	main@i
   311  0722  01F9               	clrf	main@i+1
   312                           
   313                           ;usb_switcher.c: 54: int t = 0;
   314  0723  01F6               	clrf	main@t
   315  0724  01F7               	clrf	main@t+1
   316                           
   317                           ;usb_switcher.c: 55: OSCCON = 0b01110010 ;
   318  0725  3072               	movlw	114
   319  0726  0021               	movlb	1	; select bank1
   320  0727  0099               	movwf	25	;volatile
   321                           
   322                           ;usb_switcher.c: 56: OPTION_REG = 0b00000000 ;
   323  0728  0195               	clrf	21	;volatile
   324                           
   325                           ;usb_switcher.c: 57: ANSELA = 0b00000000 ;
   326  0729  0023               	movlb	3	; select bank3
   327  072A  018C               	clrf	12	;volatile
   328                           
   329                           ;usb_switcher.c: 58: ANSELB = 0b00000000 ;
   330  072B  018D               	clrf	13	;volatile
   331                           
   332                           ;usb_switcher.c: 59: TRISA = 0b00000000 ;
   333  072C  0021               	movlb	1	; select bank1
   334  072D  018C               	clrf	12	;volatile
   335                           
   336                           ;usb_switcher.c: 60: TRISB = 0b10000000 ;
   337  072E  3080               	movlw	128
   338  072F  008D               	movwf	13	;volatile
   339                           
   340                           ;usb_switcher.c: 61: TRISC = 0b00000000 ;
   341  0730  018E               	clrf	14	;volatile
   342                           
   343                           ;usb_switcher.c: 62: WPUB = 0b10000000 ;
   344  0731  3080               	movlw	128
   345  0732  0024               	movlb	4	; select bank4
   346  0733  008D               	movwf	13	;volatile
   347                           
   348                           ;usb_switcher.c: 64: PORTA = 0b00000000 ;
   349  0734  0020               	movlb	0	; select bank0
   350  0735  018C               	clrf	12	;volatile
   351                           
   352                           ;usb_switcher.c: 65: PORTB = 0b00000000 ;
   353  0736  018D               	clrf	13	;volatile
   354                           
   355                           ;usb_switcher.c: 66: PORTC = 0b00000000 ;
   356  0737  018E               	clrf	14	;volatile
   357                           
   358                           ;usb_switcher.c: 70: while(!RB7) {
   359                           
   360                           ;usb_switcher.c: 68: while(1) {
   361  0738  2F96               	goto	l707
   362  0739                     l665:	
   363                           ;usb_switcher.c: 71: while(!RB7) Delay_ms(10);
   364                           
   365  0739  300A               	movlw	10
   366  073A  00F0               	movwf	Delay_ms@DELAY_CNT
   367  073B  3000               	movlw	0
   368  073C  00F1               	movwf	Delay_ms@DELAY_CNT+1
   369  073D  3187  270B  3187   	fcall	_Delay_ms
   370  0740                     l667:	
   371  0740  0020               	movlb	0	; select bank0
   372  0741  1F8D               	btfss	13,7	;volatile
   373  0742  2F39               	goto	l665
   374                           
   375                           ;usb_switcher.c: 72: i++; if(i>=7) i = 0;
   376  0743  3001               	movlw	1
   377  0744  07F8               	addwf	main@i,f
   378  0745  3000               	movlw	0
   379  0746  3DF9               	addwfc	main@i+1,f
   380  0747  0879               	movf	main@i+1,w
   381  0748  3A80               	xorlw	128
   382  0749  00F5               	movwf	??_main
   383  074A  3080               	movlw	128
   384  074B  0275               	subwf	??_main,w
   385  074C  1D03               	skipz
   386  074D  2F50               	goto	u255
   387  074E  3007               	movlw	7
   388  074F  0278               	subwf	main@i,w
   389  0750                     u255:	
   390  0750  1C03               	skipc
   391  0751  2F54               	goto	l673
   392  0752  01F8               	clrf	main@i
   393  0753  01F9               	clrf	main@i+1
   394  0754                     l673:	
   395                           
   396                           ;usb_switcher.c: 73: t = 1;
   397  0754  3001               	movlw	1
   398  0755  00F6               	movwf	main@t
   399  0756  3000               	movlw	0
   400  0757  00F7               	movwf	main@t+1
   401                           
   402                           ;usb_switcher.c: 75: if(i==0) PORTA = 0b00000001;
   403  0758  0878               	movf	main@i,w
   404  0759  0479               	iorwf	main@i+1,w
   405  075A  1D03               	btfss	3,2
   406  075B  2F5F               	goto	l679
   407  075C  3001               	movlw	1
   408  075D  0020               	movlb	0	; select bank0
   409  075E  008C               	movwf	12	;volatile
   410  075F                     l679:	
   411                           
   412                           ;usb_switcher.c: 76: if(i==1) PORTA = 0b00000010;
   413  075F  0378               	decf	main@i,w
   414  0760  0479               	iorwf	main@i+1,w
   415  0761  1D03               	btfss	3,2
   416  0762  2F66               	goto	l683
   417  0763  3002               	movlw	2
   418  0764  0020               	movlb	0	; select bank0
   419  0765  008C               	movwf	12	;volatile
   420  0766                     l683:	
   421                           
   422                           ;usb_switcher.c: 77: if(i==2) PORTA = 0b00000100;
   423  0766  3002               	movlw	2
   424  0767  0678               	xorwf	main@i,w
   425  0768  0479               	iorwf	main@i+1,w
   426  0769  1D03               	btfss	3,2
   427  076A  2F6E               	goto	l687
   428  076B  3004               	movlw	4
   429  076C  0020               	movlb	0	; select bank0
   430  076D  008C               	movwf	12	;volatile
   431  076E                     l687:	
   432                           
   433                           ;usb_switcher.c: 78: if(i==3) PORTA = 0b00001000;
   434  076E  3003               	movlw	3
   435  076F  0678               	xorwf	main@i,w
   436  0770  0479               	iorwf	main@i+1,w
   437  0771  1D03               	btfss	3,2
   438  0772  2F76               	goto	l691
   439  0773  3008               	movlw	8
   440  0774  0020               	movlb	0	; select bank0
   441  0775  008C               	movwf	12	;volatile
   442  0776                     l691:	
   443                           
   444                           ;usb_switcher.c: 79: if(i==4) PORTA = 0b00010000;
   445  0776  3004               	movlw	4
   446  0777  0678               	xorwf	main@i,w
   447  0778  0479               	iorwf	main@i+1,w
   448  0779  1D03               	btfss	3,2
   449  077A  2F7E               	goto	l695
   450  077B  3010               	movlw	16
   451  077C  0020               	movlb	0	; select bank0
   452  077D  008C               	movwf	12	;volatile
   453  077E                     l695:	
   454                           
   455                           ;usb_switcher.c: 80: if(i==5) PORTA = 0b00100000;
   456  077E  3005               	movlw	5
   457  077F  0678               	xorwf	main@i,w
   458  0780  0479               	iorwf	main@i+1,w
   459  0781  1D03               	btfss	3,2
   460  0782  2F86               	goto	l699
   461  0783  3020               	movlw	32
   462  0784  0020               	movlb	0	; select bank0
   463  0785  008C               	movwf	12	;volatile
   464  0786                     l699:	
   465                           
   466                           ;usb_switcher.c: 81: if(i==6) PORTA = 0b01000000;
   467  0786  3006               	movlw	6
   468  0787  0678               	xorwf	main@i,w
   469  0788  0479               	iorwf	main@i+1,w
   470  0789  1D03               	btfss	3,2
   471  078A  2F8E               	goto	l703
   472  078B  3040               	movlw	64
   473  078C  0020               	movlb	0	; select bank0
   474  078D  008C               	movwf	12	;volatile
   475  078E                     l703:	
   476                           
   477                           ;usb_switcher.c: 82: if(i==7) PORTA = 0b10000000;
   478  078E  3007               	movlw	7
   479  078F  0678               	xorwf	main@i,w
   480  0790  0479               	iorwf	main@i+1,w
   481  0791  1D03               	btfss	3,2
   482  0792  2F96               	goto	l707
   483  0793  3080               	movlw	128
   484  0794  0020               	movlb	0	; select bank0
   485  0795  008C               	movwf	12	;volatile
   486  0796                     l707:	
   487  0796  0020               	movlb	0	; select bank0
   488  0797  1F8D               	btfss	13,7	;volatile
   489  0798  2F40               	goto	l667
   490                           
   491                           ;usb_switcher.c: 83: };
   492                           ;usb_switcher.c: 85: if(t>=1) {Delay_ms(10); t++; PORTC = 0b00000000;};
   493  0799  0877               	movf	main@t+1,w
   494  079A  3A80               	xorlw	128
   495  079B  00F5               	movwf	??_main
   496  079C  3080               	movlw	128
   497  079D  0275               	subwf	??_main,w
   498  079E  1D03               	skipz
   499  079F  2FA2               	goto	u355
   500  07A0  3001               	movlw	1
   501  07A1  0276               	subwf	main@t,w
   502  07A2                     u355:	
   503  07A2  1C03               	skipc
   504  07A3  2FB1               	goto	l717
   505  07A4  300A               	movlw	10
   506  07A5  00F0               	movwf	Delay_ms@DELAY_CNT
   507  07A6  3000               	movlw	0
   508  07A7  00F1               	movwf	Delay_ms@DELAY_CNT+1
   509  07A8  3187  270B  3187   	fcall	_Delay_ms
   510  07AB  3001               	movlw	1
   511  07AC  07F6               	addwf	main@t,f
   512  07AD  3000               	movlw	0
   513  07AE  3DF7               	addwfc	main@t+1,f
   514  07AF  0020               	movlb	0	; select bank0
   515  07B0  018E               	clrf	14	;volatile
   516  07B1                     l717:	
   517                           
   518                           ;usb_switcher.c: 87: if(t>=100) {
   519  07B1  0877               	movf	main@t+1,w
   520  07B2  3A80               	xorlw	128
   521  07B3  00F5               	movwf	??_main
   522  07B4  3080               	movlw	128
   523  07B5  0275               	subwf	??_main,w
   524  07B6  1D03               	skipz
   525  07B7  2FBA               	goto	u365
   526  07B8  3064               	movlw	100
   527  07B9  0276               	subwf	main@t,w
   528  07BA                     u365:	
   529  07BA  1C03               	skipc
   530  07BB  2F96               	goto	l707
   531                           
   532                           ;usb_switcher.c: 88: t = 0;
   533  07BC  01F6               	clrf	main@t
   534  07BD  01F7               	clrf	main@t+1
   535                           
   536                           ;usb_switcher.c: 89: if(i==0) PORTC = 0b00000001;
   537  07BE  0878               	movf	main@i,w
   538  07BF  0479               	iorwf	main@i+1,w
   539  07C0  1D03               	btfss	3,2
   540  07C1  2FC5               	goto	l725
   541  07C2  3001               	movlw	1
   542  07C3  0020               	movlb	0	; select bank0
   543  07C4  008E               	movwf	14	;volatile
   544  07C5                     l725:	
   545                           
   546                           ;usb_switcher.c: 90: if(i==1) PORTC = 0b00000010;
   547  07C5  0378               	decf	main@i,w
   548  07C6  0479               	iorwf	main@i+1,w
   549  07C7  1D03               	btfss	3,2
   550  07C8  2FCC               	goto	l729
   551  07C9  3002               	movlw	2
   552  07CA  0020               	movlb	0	; select bank0
   553  07CB  008E               	movwf	14	;volatile
   554  07CC                     l729:	
   555                           
   556                           ;usb_switcher.c: 91: if(i==2) PORTC = 0b00000100;
   557  07CC  3002               	movlw	2
   558  07CD  0678               	xorwf	main@i,w
   559  07CE  0479               	iorwf	main@i+1,w
   560  07CF  1D03               	btfss	3,2
   561  07D0  2FD4               	goto	l733
   562  07D1  3004               	movlw	4
   563  07D2  0020               	movlb	0	; select bank0
   564  07D3  008E               	movwf	14	;volatile
   565  07D4                     l733:	
   566                           
   567                           ;usb_switcher.c: 92: if(i==3) PORTC = 0b00001000;
   568  07D4  3003               	movlw	3
   569  07D5  0678               	xorwf	main@i,w
   570  07D6  0479               	iorwf	main@i+1,w
   571  07D7  1D03               	btfss	3,2
   572  07D8  2FDC               	goto	l737
   573  07D9  3008               	movlw	8
   574  07DA  0020               	movlb	0	; select bank0
   575  07DB  008E               	movwf	14	;volatile
   576  07DC                     l737:	
   577                           
   578                           ;usb_switcher.c: 93: if(i==4) PORTC = 0b00010000;
   579  07DC  3004               	movlw	4
   580  07DD  0678               	xorwf	main@i,w
   581  07DE  0479               	iorwf	main@i+1,w
   582  07DF  1D03               	btfss	3,2
   583  07E0  2FE4               	goto	l741
   584  07E1  3010               	movlw	16
   585  07E2  0020               	movlb	0	; select bank0
   586  07E3  008E               	movwf	14	;volatile
   587  07E4                     l741:	
   588                           
   589                           ;usb_switcher.c: 94: if(i==5) PORTC = 0b00100000;
   590  07E4  3005               	movlw	5
   591  07E5  0678               	xorwf	main@i,w
   592  07E6  0479               	iorwf	main@i+1,w
   593  07E7  1D03               	btfss	3,2
   594  07E8  2FEC               	goto	l745
   595  07E9  3020               	movlw	32
   596  07EA  0020               	movlb	0	; select bank0
   597  07EB  008E               	movwf	14	;volatile
   598  07EC                     l745:	
   599                           
   600                           ;usb_switcher.c: 95: if(i==6) PORTC = 0b01000000;
   601  07EC  3006               	movlw	6
   602  07ED  0678               	xorwf	main@i,w
   603  07EE  0479               	iorwf	main@i+1,w
   604  07EF  1D03               	btfss	3,2
   605  07F0  2FF4               	goto	l749
   606  07F1  3040               	movlw	64
   607  07F2  0020               	movlb	0	; select bank0
   608  07F3  008E               	movwf	14	;volatile
   609  07F4                     l749:	
   610                           
   611                           ;usb_switcher.c: 96: if(i==7) PORTC = 0b10000000;
   612  07F4  3007               	movlw	7
   613  07F5  0678               	xorwf	main@i,w
   614  07F6  0479               	iorwf	main@i+1,w
   615  07F7  1D03               	btfss	3,2
   616  07F8  2F96               	goto	l707
   617  07F9  3080               	movlw	128
   618  07FA  0020               	movlb	0	; select bank0
   619  07FB  008E               	movwf	14	;volatile
   620                           
   621                           ;usb_switcher.c: 97: };
   622  07FC  2F96               	goto	l707
   623  07FD                     __end_of_main:	
   624                           
   625                           	psect	text1
   626  070B                     __ptext1:	
   627 ;; *************** function _Delay_ms *****************
   628 ;; Defined at:
   629 ;;		line 44 in file "usb_switcher.c"
   630 ;; Parameters:    Size  Location     Type
   631 ;;  DELAY_CNT       2    0[COMMON] unsigned int 
   632 ;; Auto vars:     Size  Location     Type
   633 ;;  i               2    3[COMMON] unsigned int 
   634 ;; Return value:  Size  Location     Type
   635 ;;                  1    wreg      void 
   636 ;; Registers used:
   637 ;;		wreg, status,2
   638 ;; Tracked objects:
   639 ;;		On entry : 0/0
   640 ;;		On exit  : 0/0
   641 ;;		Unchanged: 0/0
   642 ;; Data sizes:     COMMON   BANK0   BANK1   BANK2   BANK3   BANK4   BANK5   BANK6   BANK7   BANK8   BANK9  BANK10  BANK1
      +1  BANK12
   643 ;;      Params:         2       0       0       0       0       0       0       0       0       0       0       0       
      +0       0
   644 ;;      Locals:         2       0       0       0       0       0       0       0       0       0       0       0       
      +0       0
   645 ;;      Temps:          1       0       0       0       0       0       0       0       0       0       0       0       
      +0       0
   646 ;;      Totals:         5       0       0       0       0       0       0       0       0       0       0       0       
      +0       0
   647 ;;Total ram usage:        5 bytes
   648 ;; Hardware stack levels used:    1
   649 ;; This function calls:
   650 ;;		Nothing
   651 ;; This function is called by:
   652 ;;		_main
   653 ;; This function uses a non-reentrant model
   654 ;;
   655                           
   656                           
   657                           ;psect for function _Delay_ms
   658  070B                     _Delay_ms:	
   659                           
   660                           ;usb_switcher.c: 45: for (unsigned int i = 0; i < DELAY_CNT; i++) {
   661                           
   662                           ;incstack = 0
   663                           ; Regs used in _Delay_ms: [wreg+status,2]
   664  070B  01F3               	clrf	Delay_ms@i
   665  070C  01F4               	clrf	Delay_ms@i+1
   666  070D                     l29:	
   667  070D  0871               	movf	Delay_ms@DELAY_CNT+1,w
   668  070E  0274               	subwf	Delay_ms@i+1,w
   669  070F  1D03               	skipz
   670  0710  2F13               	goto	u235
   671  0711  0870               	movf	Delay_ms@DELAY_CNT,w
   672  0712  0273               	subwf	Delay_ms@i,w
   673  0713                     u235:	
   674  0713  1803               	btfsc	3,0
   675  0714  0008               	return
   676                           
   677                           ;usb_switcher.c: 46: _delay((unsigned long)((1)*(8000000/4000.0)));
   678  0715  3003               	movlw	3
   679  0716  00F2               	movwf	??_Delay_ms
   680  0717  3098               	movlw	152
   681  0718                     u457:	
   682  0718  0B89               	decfsz	9,f
   683  0719  2F18               	goto	u457
   684  071A  0BF2               	decfsz	??_Delay_ms,f
   685  071B  2F18               	goto	u457
   686  071C  3001               	movlw	1
   687  071D  07F3               	addwf	Delay_ms@i,f
   688  071E  3000               	movlw	0
   689  071F  3DF4               	addwfc	Delay_ms@i+1,f
   690  0720  2F0D               	goto	l29
   691  0721                     __end_of_Delay_ms:	
   692  007E                     btemp	set	126	;btemp
   693  007E                     wtemp0	set	126


Data Sizes:
    Strings     0
    Constant    0
    Data        0
    BSS         0
    Persistent  0
    Stack       0

Auto Spaces:
    Space          Size  Autos    Used
    COMMON           14     10      10
    BANK0            80      0       0
    BANK1            80      0       0
    BANK2            80      0       0
    BANK3            80      0       0
    BANK4            80      0       0
    BANK5            80      0       0
    BANK6            80      0       0
    BANK7            80      0       0
    BANK8            80      0       0
    BANK9            80      0       0
    BANK10           80      0       0
    BANK11           80      0       0
    BANK12           48      0       0

Pointer List with Targets:

    None.

Critical Paths under _main in COMMON

    _main->_Delay_ms

Critical Paths under _main in BANK0

    None.

Critical Paths under _main in BANK1

    None.

Critical Paths under _main in BANK2

    None.

Critical Paths under _main in BANK3

    None.

Critical Paths under _main in BANK4

    None.

Critical Paths under _main in BANK5

    None.

Critical Paths under _main in BANK6

    None.

Critical Paths under _main in BANK7

    None.

Critical Paths under _main in BANK8

    None.

Critical Paths under _main in BANK9

    None.

Critical Paths under _main in BANK10

    None.

Critical Paths under _main in BANK11

    None.

Critical Paths under _main in BANK12

    None.

Call Graph Tables:

 ---------------------------------------------------------------------------------
 (Depth) Function   	        Calls       Base Space   Used Autos Params    Refs
 ---------------------------------------------------------------------------------
 (0) _main                                                 5     5      0     577
                                              5 COMMON     5     5      0
                           _Delay_ms
 ---------------------------------------------------------------------------------
 (1) _Delay_ms                                             5     3      2     152
                                              0 COMMON     5     3      2
 ---------------------------------------------------------------------------------
 Estimated maximum stack depth 1
 ---------------------------------------------------------------------------------

 Call Graph Graphs:

 _main (ROOT)
   _Delay_ms

 Address spaces:
Name               Size   Autos  Total    Cost      Usage
BIGRAM             3F0      0       0       0        0.0%
EEDATA             100      0       0       0        0.0%
NULL                 0      0       0       0        0.0%
CODE                 0      0       0       0        0.0%
BITCOMMON            E      0       0       1        0.0%
BITSFR0              0      0       0       1        0.0%
SFR0                 0      0       0       1        0.0%
COMMON               E      A       A       2       71.4%
BITSFR1              0      0       0       2        0.0%
SFR1                 0      0       0       2        0.0%
BITSFR2              0      0       0       3        0.0%
SFR2                 0      0       0       3        0.0%
STACK                0      0       0       3        0.0%
BITBANK0            50      0       0       4        0.0%
BITSFR3              0      0       0       4        0.0%
SFR3                 0      0       0       4        0.0%
BANK0               50      0       0       5        0.0%
BITSFR4              0      0       0       5        0.0%
SFR4                 0      0       0       5        0.0%
BITBANK1            50      0       0       6        0.0%
BITSFR5              0      0       0       6        0.0%
SFR5                 0      0       0       6        0.0%
BANK1               50      0       0       7        0.0%
BITSFR6              0      0       0       7        0.0%
SFR6                 0      0       0       7        0.0%
BITBANK2            50      0       0       8        0.0%
BITSFR7              0      0       0       8        0.0%
SFR7                 0      0       0       8        0.0%
BANK2               50      0       0       9        0.0%
BITSFR8              0      0       0       9        0.0%
SFR8                 0      0       0       9        0.0%
BITBANK3            50      0       0      10        0.0%
BITSFR9              0      0       0      10        0.0%
SFR9                 0      0       0      10        0.0%
BANK3               50      0       0      11        0.0%
BITSFR10             0      0       0      11        0.0%
SFR10                0      0       0      11        0.0%
BITBANK4            50      0       0      12        0.0%
BITSFR11             0      0       0      12        0.0%
SFR11                0      0       0      12        0.0%
BANK4               50      0       0      13        0.0%
BITSFR12             0      0       0      13        0.0%
SFR12                0      0       0      13        0.0%
BITBANK5            50      0       0      14        0.0%
BITSFR13             0      0       0      14        0.0%
SFR13                0      0       0      14        0.0%
BANK5               50      0       0      15        0.0%
BITSFR14             0      0       0      15        0.0%
SFR14                0      0       0      15        0.0%
BITBANK6            50      0       0      16        0.0%
BITSFR15             0      0       0      16        0.0%
SFR15                0      0       0      16        0.0%
BANK6               50      0       0      17        0.0%
BITSFR16             0      0       0      17        0.0%
SFR16                0      0       0      17        0.0%
BITBANK7            50      0       0      18        0.0%
BITSFR17             0      0       0      18        0.0%
SFR17                0      0       0      18        0.0%
BANK7               50      0       0      19        0.0%
BITSFR18             0      0       0      19        0.0%
SFR18                0      0       0      19        0.0%
BITSFR19             0      0       0      20        0.0%
SFR19                0      0       0      20        0.0%
ABS                  0      0       0      20        0.0%
BITBANK8            50      0       0      21        0.0%
BITSFR20             0      0       0      21        0.0%
SFR20                0      0       0      21        0.0%
BANK8               50      0       0      22        0.0%
BITSFR21             0      0       0      22        0.0%
SFR21                0      0       0      22        0.0%
BITBANK9            50      0       0      23        0.0%
BITSFR22             0      0       0      23        0.0%
SFR22                0      0       0      23        0.0%
BANK9               50      0       0      24        0.0%
BITSFR23             0      0       0      24        0.0%
SFR23                0      0       0      24        0.0%
BITBANK10           50      0       0      25        0.0%
BITSFR24             0      0       0      25        0.0%
SFR24                0      0       0      25        0.0%
BANK10              50      0       0      26        0.0%
BITSFR25             0      0       0      26        0.0%
SFR25                0      0       0      26        0.0%
BITBANK11           50      0       0      27        0.0%
BITSFR26             0      0       0      27        0.0%
SFR26                0      0       0      27        0.0%
BANK11              50      0       0      28        0.0%
BITSFR27             0      0       0      28        0.0%
SFR27                0      0       0      28        0.0%
BITBANK12           30      0       0      29        0.0%
BITSFR28             0      0       0      29        0.0%
SFR28                0      0       0      29        0.0%
BANK12              30      0       0      30        0.0%
BITSFR29             0      0       0      30        0.0%
SFR29                0      0       0      30        0.0%
BITSFR30             0      0       0      31        0.0%
SFR30                0      0       0      31        0.0%
DATA                 0      0       0      31        0.0%
BITSFR31             0      0       0      32        0.0%
SFR31                0      0       0      32        0.0%


Microchip Technology PIC Macro Assembler V1.45 build -152302408 
Symbol Table                                                                                   Fri Jul 12 04:20:16 2019

            __CFG_CP$OFF 0000                       l29 070D                      l703 078E  
                    l707 0796                      l741 07E4                      l733 07D4  
                    l725 07C5                      l717 07B1                      l745 07EC  
                    l737 07DC                      l729 07CC                      l673 0754  
                    l665 0739                      l691 0776                      l683 0766  
                    l667 0740                      l749 07F4                      l695 077E  
                    l687 076E                      l679 075F                      l699 0786  
                    _RB7 006F                      u235 0713                      u255 0750  
           __CFG_CPD$OFF 0000                      u355 07A2                      u365 07BA  
                    u457 0718             __CFG_BORV$LO 0000                      wreg 0009  
           __CFG_IESO$ON 0000             __CFG_LVP$OFF 0000                     _WPUB 020D  
           __CFG_WRT$OFF 0000                     _main 0721                     btemp 007E  
                   start 0002            __CFG_MCLRE$ON 0000                    ?_main 0070  
          __CFG_WDTE$OFF 0000                    _PORTA 000C                    _PORTB 000D  
                  _PORTC 000E                    _TRISA 008C                    _TRISB 008D  
                  _TRISC 008E           __CFG_FCMEN$OFF 0000                    main@i 0078  
                  main@t 0076           __CFG_BOREN$OFF 0000                    status 0003  
                  wtemp0 007E        Delay_ms@DELAY_CNT 0070         __end_of_Delay_ms 0721  
        __initialization 07FD             __end_of_main 07FD                   ??_main 0075  
         __CFG_PLLEN$OFF 0000                   _ANSELA 018C                   _ANSELB 018D  
                 _OSCCON 0099           __CFG_PWRTE$OFF 0000           __CFG_STVREN$ON 0000  
__end_of__initialization 07FD           __pcstackCOMMON 0070                ?_Delay_ms 0070  
        __CFG_VCAPEN$OFF 0000               __pmaintext 0721               ??_Delay_ms 0072  
                __ptext1 070B     end_of_initialization 07FD                Delay_ms@i 0073  
       __CFG_FOSC$INTOSC 0000      start_initialization 07FD        __size_of_Delay_ms 0016  
              ___latbits 0003                 _Delay_ms 070B            __size_of_main 00DC  
      __CFG_CLKOUTEN$OFF 0000               _OPTION_REG 0095  
