

Microchip MPLAB XC8 Assembler V2.20 build 20200408173844 
                                                                                               Wed Aug 12 15:50:06 2020

Microchip MPLAB XC8 C Compiler v2.20 (Free license) build 20200408173844 Og1 
     1                           	processor	16F1938
     2                           	pagewidth 120
     3                           	opt	flic
     4                           	psect	cinit,global,class=CODE,merge=1,delta=2
     5                           	psect	cstackCOMMON,global,class=COMMON,space=1,delta=1,noexec
     6                           	psect	cstackBANK0,global,class=BANK0,space=1,delta=1,noexec
     7                           	psect	maintext,global,class=CODE,merge=1,split=1,delta=2
     8                           	psect	text1,local,class=CODE,merge=1,delta=2
     9                           	psect	config,global,abs,ovrld,class=CONFIG,space=4,delta=2,noexec
    10                           	dabs	1,0x7E,2
    11  0000                     
    12                           ; Version 2.20
    13                           ; Generated 12/02/2020 GMT
    14                           ; 
    15                           ; Copyright © 2020, Microchip Technology Inc. and its subsidiaries ("Microchip")
    16                           ; All rights reserved.
    17                           ; 
    18                           ; This software is developed by Microchip Technology Inc. and its subsidiaries ("Microch
      +                          ip").
    19                           ; 
    20                           ; Redistribution and use in source and binary forms, with or without modification, are
    21                           ; permitted provided that the following conditions are met:
    22                           ; 
    23                           ;     1. Redistributions of source code must retain the above copyright notice, this lis
      +                          t of
    24                           ;        conditions and the following disclaimer.
    25                           ; 
    26                           ;     2. Redistributions in binary form must reproduce the above copyright notice, this 
      +                          list
    27                           ;        of conditions and the following disclaimer in the documentation and/or other
    28                           ;        materials provided with the distribution.
    29                           ; 
    30                           ;     3. Microchip's name may not be used to endorse or promote products derived from th
      +                          is
    31                           ;        software without specific prior written permission.
    32                           ; 
    33                           ; THIS SOFTWARE IS PROVIDED BY MICROCHIP "AS IS" AND ANY EXPRESS OR IMPLIED WARRANTIES,
    34                           ; INCLUDING, BUT NOT LIMITED TO, THE IMPLIED WARRANTIES OF MERCHANTABILITY AND FITNESS F
      +                          OR
    35                           ; PURPOSE ARE DISCLAIMED.  IN NO EVENT SHALL MICROCHIP BE LIABLE FOR ANY DIRECT, INDIREC
      +                          T,
    36                           ; INCIDENTAL, SPECIAL, EXEMPLARY, OR CONSEQUENTIAL DAMAGES (INCLUDING BUT NOT LIMITED TO
    37                           ; PROCUREMENT OF SUBSTITUTE GOODS OR SERVICES; LOSS OF USE, DATA OR PROFITS; OR BUSINESS
    38                           ; INTERRUPTION) HOWSOEVER CAUSED AND ON ANY THEORY OF LIABILITY, WHETHER IN CONTRACT, ST
      +                          RICT
    39                           ; LIABILITY, OR TORT (INCLUDING NEGLIGENCE OR OTHERWISE) ARISING IN ANY WAY OUT OF THE U
      +                          SE OF
    40                           ; THIS SOFTWARE, EVEN IF ADVISED OF THE POSSIBILITY OF SUCH DAMAGE.
    41                           ; 
    42                           ; 
    43                           ; Code-generator required, PIC16F1938 Definitions
    44                           ; 
    45                           ; SFR Addresses
    46  0000                     	;# 
    47  0001                     	;# 
    48  0002                     	;# 
    49  0003                     	;# 
    50  0004                     	;# 
    51  0005                     	;# 
    52  0006                     	;# 
    53  0007                     	;# 
    54  0008                     	;# 
    55  0009                     	;# 
    56  000A                     	;# 
    57  000B                     	;# 
    58  000C                     	;# 
    59  000D                     	;# 
    60  000E                     	;# 
    61  0010                     	;# 
    62  0011                     	;# 
    63  0012                     	;# 
    64  0013                     	;# 
    65  0015                     	;# 
    66  0016                     	;# 
    67  0016                     	;# 
    68  0017                     	;# 
    69  0018                     	;# 
    70  0019                     	;# 
    71  001A                     	;# 
    72  001B                     	;# 
    73  001C                     	;# 
    74  001E                     	;# 
    75  001F                     	;# 
    76  008C                     	;# 
    77  008D                     	;# 
    78  008E                     	;# 
    79  0090                     	;# 
    80  0091                     	;# 
    81  0092                     	;# 
    82  0093                     	;# 
    83  0095                     	;# 
    84  0096                     	;# 
    85  0097                     	;# 
    86  0098                     	;# 
    87  0099                     	;# 
    88  009A                     	;# 
    89  009B                     	;# 
    90  009B                     	;# 
    91  009C                     	;# 
    92  009D                     	;# 
    93  009E                     	;# 
    94  010C                     	;# 
    95  010D                     	;# 
    96  010E                     	;# 
    97  0110                     	;# 
    98  0111                     	;# 
    99  0112                     	;# 
   100  0113                     	;# 
   101  0114                     	;# 
   102  0115                     	;# 
   103  0116                     	;# 
   104  0117                     	;# 
   105  0118                     	;# 
   106  0119                     	;# 
   107  011A                     	;# 
   108  011B                     	;# 
   109  011D                     	;# 
   110  018C                     	;# 
   111  018D                     	;# 
   112  0191                     	;# 
   113  0191                     	;# 
   114  0192                     	;# 
   115  0193                     	;# 
   116  0193                     	;# 
   117  0193                     	;# 
   118  0194                     	;# 
   119  0195                     	;# 
   120  0196                     	;# 
   121  0199                     	;# 
   122  019A                     	;# 
   123  019B                     	;# 
   124  019B                     	;# 
   125  019B                     	;# 
   126  019B                     	;# 
   127  019C                     	;# 
   128  019C                     	;# 
   129  019D                     	;# 
   130  019E                     	;# 
   131  019F                     	;# 
   132  020D                     	;# 
   133  0210                     	;# 
   134  0211                     	;# 
   135  0212                     	;# 
   136  0213                     	;# 
   137  0214                     	;# 
   138  0215                     	;# 
   139  0215                     	;# 
   140  0216                     	;# 
   141  0217                     	;# 
   142  0291                     	;# 
   143  0291                     	;# 
   144  0292                     	;# 
   145  0293                     	;# 
   146  0294                     	;# 
   147  0295                     	;# 
   148  0295                     	;# 
   149  0296                     	;# 
   150  0298                     	;# 
   151  0298                     	;# 
   152  0299                     	;# 
   153  029A                     	;# 
   154  029B                     	;# 
   155  029C                     	;# 
   156  029C                     	;# 
   157  029D                     	;# 
   158  029E                     	;# 
   159  029F                     	;# 
   160  0311                     	;# 
   161  0311                     	;# 
   162  0312                     	;# 
   163  0313                     	;# 
   164  0314                     	;# 
   165  0315                     	;# 
   166  0315                     	;# 
   167  0316                     	;# 
   168  0318                     	;# 
   169  0318                     	;# 
   170  0319                     	;# 
   171  031A                     	;# 
   172  031C                     	;# 
   173  031C                     	;# 
   174  031D                     	;# 
   175  031E                     	;# 
   176  0394                     	;# 
   177  0395                     	;# 
   178  0396                     	;# 
   179  0415                     	;# 
   180  0416                     	;# 
   181  0417                     	;# 
   182  041C                     	;# 
   183  041D                     	;# 
   184  041E                     	;# 
   185  0791                     	;# 
   186  0792                     	;# 
   187  0793                     	;# 
   188  0794                     	;# 
   189  0795                     	;# 
   190  0798                     	;# 
   191  0799                     	;# 
   192  07A0                     	;# 
   193  07A1                     	;# 
   194  07A3                     	;# 
   195  07A4                     	;# 
   196  07A6                     	;# 
   197  07A7                     	;# 
   198  07A9                     	;# 
   199  07AA                     	;# 
   200  0FE4                     	;# 
   201  0FE5                     	;# 
   202  0FE6                     	;# 
   203  0FE7                     	;# 
   204  0FE8                     	;# 
   205  0FE9                     	;# 
   206  0FEA                     	;# 
   207  0FEB                     	;# 
   208  0FED                     	;# 
   209  0FEE                     	;# 
   210  0FEF                     	;# 
   211  0000                     	;# 
   212  0001                     	;# 
   213  0002                     	;# 
   214  0003                     	;# 
   215  0004                     	;# 
   216  0005                     	;# 
   217  0006                     	;# 
   218  0007                     	;# 
   219  0008                     	;# 
   220  0009                     	;# 
   221  000A                     	;# 
   222  000B                     	;# 
   223  000C                     	;# 
   224  000D                     	;# 
   225  000E                     	;# 
   226  0010                     	;# 
   227  0011                     	;# 
   228  0012                     	;# 
   229  0013                     	;# 
   230  0015                     	;# 
   231  0016                     	;# 
   232  0016                     	;# 
   233  0017                     	;# 
   234  0018                     	;# 
   235  0019                     	;# 
   236  001A                     	;# 
   237  001B                     	;# 
   238  001C                     	;# 
   239  001E                     	;# 
   240  001F                     	;# 
   241  008C                     	;# 
   242  008D                     	;# 
   243  008E                     	;# 
   244  0090                     	;# 
   245  0091                     	;# 
   246  0092                     	;# 
   247  0093                     	;# 
   248  0095                     	;# 
   249  0096                     	;# 
   250  0097                     	;# 
   251  0098                     	;# 
   252  0099                     	;# 
   253  009A                     	;# 
   254  009B                     	;# 
   255  009B                     	;# 
   256  009C                     	;# 
   257  009D                     	;# 
   258  009E                     	;# 
   259  010C                     	;# 
   260  010D                     	;# 
   261  010E                     	;# 
   262  0110                     	;# 
   263  0111                     	;# 
   264  0112                     	;# 
   265  0113                     	;# 
   266  0114                     	;# 
   267  0115                     	;# 
   268  0116                     	;# 
   269  0117                     	;# 
   270  0118                     	;# 
   271  0119                     	;# 
   272  011A                     	;# 
   273  011B                     	;# 
   274  011D                     	;# 
   275  018C                     	;# 
   276  018D                     	;# 
   277  0191                     	;# 
   278  0191                     	;# 
   279  0192                     	;# 
   280  0193                     	;# 
   281  0193                     	;# 
   282  0193                     	;# 
   283  0194                     	;# 
   284  0195                     	;# 
   285  0196                     	;# 
   286  0199                     	;# 
   287  019A                     	;# 
   288  019B                     	;# 
   289  019B                     	;# 
   290  019B                     	;# 
   291  019B                     	;# 
   292  019C                     	;# 
   293  019C                     	;# 
   294  019D                     	;# 
   295  019E                     	;# 
   296  019F                     	;# 
   297  020D                     	;# 
   298  0210                     	;# 
   299  0211                     	;# 
   300  0212                     	;# 
   301  0213                     	;# 
   302  0214                     	;# 
   303  0215                     	;# 
   304  0215                     	;# 
   305  0216                     	;# 
   306  0217                     	;# 
   307  0291                     	;# 
   308  0291                     	;# 
   309  0292                     	;# 
   310  0293                     	;# 
   311  0294                     	;# 
   312  0295                     	;# 
   313  0295                     	;# 
   314  0296                     	;# 
   315  0298                     	;# 
   316  0298                     	;# 
   317  0299                     	;# 
   318  029A                     	;# 
   319  029B                     	;# 
   320  029C                     	;# 
   321  029C                     	;# 
   322  029D                     	;# 
   323  029E                     	;# 
   324  029F                     	;# 
   325  0311                     	;# 
   326  0311                     	;# 
   327  0312                     	;# 
   328  0313                     	;# 
   329  0314                     	;# 
   330  0315                     	;# 
   331  0315                     	;# 
   332  0316                     	;# 
   333  0318                     	;# 
   334  0318                     	;# 
   335  0319                     	;# 
   336  031A                     	;# 
   337  031C                     	;# 
   338  031C                     	;# 
   339  031D                     	;# 
   340  031E                     	;# 
   341  0394                     	;# 
   342  0395                     	;# 
   343  0396                     	;# 
   344  0415                     	;# 
   345  0416                     	;# 
   346  0417                     	;# 
   347  041C                     	;# 
   348  041D                     	;# 
   349  041E                     	;# 
   350  0791                     	;# 
   351  0792                     	;# 
   352  0793                     	;# 
   353  0794                     	;# 
   354  0795                     	;# 
   355  0798                     	;# 
   356  0799                     	;# 
   357  07A0                     	;# 
   358  07A1                     	;# 
   359  07A3                     	;# 
   360  07A4                     	;# 
   361  07A6                     	;# 
   362  07A7                     	;# 
   363  07A9                     	;# 
   364  07AA                     	;# 
   365  0FE4                     	;# 
   366  0FE5                     	;# 
   367  0FE6                     	;# 
   368  0FE7                     	;# 
   369  0FE8                     	;# 
   370  0FE9                     	;# 
   371  0FEA                     	;# 
   372  0FEB                     	;# 
   373  0FED                     	;# 
   374  0FEE                     	;# 
   375  0FEF                     	;# 
   376  000E                     _PORTC	set	14
   377  000D                     _PORTB	set	13
   378  000C                     _PORTA	set	12
   379  006E                     _RB6	set	110
   380  006A                     _RB2	set	106
   381  006B                     _RB3	set	107
   382  006C                     _RB4	set	108
   383  006F                     _RB7	set	111
   384  006D                     _RB5	set	109
   385  008E                     _TRISC	set	142
   386  008D                     _TRISB	set	141
   387  008C                     _TRISA	set	140
   388  0095                     _OPTION_REG	set	149
   389  0099                     _OSCCON	set	153
   390  018D                     _ANSELB	set	397
   391  018C                     _ANSELA	set	396
   392  020D                     _WPUB	set	525
   393                           
   394                           	psect	cinit
   395  07FD                     start_initialization:	
   396                           ; #config settings
   397                           
   398  07FD                     __initialization:
   399  07FD                     end_of_initialization:	
   400                           ;End of C runtime variable initialization code
   401                           
   402  07FD                     __end_of__initialization:
   403  07FD  0020               	movlb	0
   404  07FE  3185  2DF0         	ljmp	_main	;jump to C main() function
   405                           
   406                           	psect	cstackCOMMON
   407  0070                     __pcstackCOMMON:
   408  0070                     ?_Delay_ms:
   409  0070                     ?_main:	
   410                           ; 1 bytes @ 0x0
   411                           
   412  0070                     Delay_ms@DELAY_CNT:	
   413                           ; 1 bytes @ 0x0
   414                           
   415                           
   416                           ; 2 bytes @ 0x0
   417  0070                     	ds	2
   418  0072                     ??_Delay_ms:
   419                           
   420                           ; 1 bytes @ 0x2
   421  0072                     	ds	1
   422  0073                     Delay_ms@i:
   423                           
   424                           ; 2 bytes @ 0x3
   425  0073                     	ds	2
   426  0075                     ??_main:
   427                           
   428                           ; 1 bytes @ 0x5
   429  0075                     	ds	1
   430                           
   431                           	psect	cstackBANK0
   432  0020                     __pcstackBANK0:
   433  0020                     main@k:
   434                           
   435                           ; 2 bytes @ 0x0
   436  0020                     	ds	2
   437  0022                     main@j:
   438                           
   439                           ; 2 bytes @ 0x2
   440  0022                     	ds	2
   441  0024                     main@t:
   442                           
   443                           ; 4 bytes @ 0x4
   444  0024                     	ds	4
   445  0028                     main@i:
   446                           
   447                           ; 2 bytes @ 0x8
   448  0028                     	ds	2
   449                           
   450                           	psect	maintext
   451  05F0                     __pmaintext:	
   452 ;;
   453 ;;Main: autosize = 0, tempsize = 1, incstack = 0, save=0
   454 ;;
   455 ;; *************** function _main *****************
   456 ;; Defined at:
   457 ;;		line 65 in file "usb_switcher2-2.c"
   458 ;; Parameters:    Size  Location     Type
   459 ;;		None
   460 ;; Auto vars:     Size  Location     Type
   461 ;;  t               4    4[BANK0 ] long 
   462 ;;  i               2    8[BANK0 ] int 
   463 ;;  j               2    2[BANK0 ] int 
   464 ;;  k               2    0[BANK0 ] int 
   465 ;; Return value:  Size  Location     Type
   466 ;;                  1    wreg      void 
   467 ;; Registers used:
   468 ;;		wreg, status,2, status,0, pclath, cstack
   469 ;; Tracked objects:
   470 ;;		On entry : B1F/0
   471 ;;		On exit  : 0/0
   472 ;;		Unchanged: 0/0
   473 ;; Data sizes:     COMMON   BANK0   BANK1   BANK2   BANK3   BANK4   BANK5   BANK6   BANK7   BANK8   BANK9  BANK10  BANK1
      +1  BANK12
   474 ;;      Params:         0       0       0       0       0       0       0       0       0       0       0       0       
      +0       0
   475 ;;      Locals:         0      10       0       0       0       0       0       0       0       0       0       0       
      +0       0
   476 ;;      Temps:          1       0       0       0       0       0       0       0       0       0       0       0       
      +0       0
   477 ;;      Totals:         1      10       0       0       0       0       0       0       0       0       0       0       
      +0       0
   478 ;;Total ram usage:       11 bytes
   479 ;; Hardware stack levels required when called:    1
   480 ;; This function calls:
   481 ;;		_Delay_ms
   482 ;; This function is called by:
   483 ;;		Startup code after reset
   484 ;; This function uses a non-reentrant model
   485 ;;
   486                           
   487                           
   488                           ;psect for function _main
   489  05F0                     _main:
   490  05F0                     l901:	
   491                           ;incstack = 0
   492                           ; Regs used in _main: [wreg+status,2+status,0+pclath+cstack]
   493                           
   494                           
   495                           ;usb_switcher2-2.c: 68: 
   496  05F0  0020               	movlb	0	; select bank0
   497  05F1  01A8               	clrf	main@i
   498  05F2  01A9               	clrf	main@i+1
   499  05F3                     l903:
   500                           
   501                           ;usb_switcher2-2.c: 69:         if(1<=j && j<=500) RB2=0;
   502  05F3  3000               	movlw	0
   503  05F4  00A7               	movwf	main@t+3
   504  05F5  3000               	movlw	0
   505  05F6  00A6               	movwf	main@t+2
   506  05F7  3000               	movlw	0
   507  05F8  00A5               	movwf	main@t+1
   508  05F9  3000               	movlw	0
   509  05FA  00A4               	movwf	main@t
   510  05FB                     l905:
   511                           
   512                           ;usb_switcher2-2.c: 70:         if(j>1500) {RB2=0;j=1500;} else RB2=1;
   513  05FB  01A2               	clrf	main@j
   514  05FC  01A3               	clrf	main@j+1
   515  05FD                     l907:
   516                           
   517                           ;usb_switcher2-2.c: 71: 
   518  05FD  01A0               	clrf	main@k
   519  05FE  01A1               	clrf	main@k+1
   520  05FF                     l909:
   521                           
   522                           ;usb_switcher2-2.c: 72:         if (RB2==1) {
   523  05FF  3072               	movlw	114
   524  0600  0021               	movlb	1	; select bank1
   525  0601  0099               	movwf	25	;volatile
   526                           
   527                           ;usb_switcher2-2.c: 73:             k++;
   528  0602  0195               	clrf	21	;volatile
   529                           
   530                           ;usb_switcher2-2.c: 74:             if(k>100) k=100;
   531  0603  0023               	movlb	3	; select bank3
   532  0604  018C               	clrf	12	;volatile
   533                           
   534                           ;usb_switcher2-2.c: 75:         };
   535  0605  018D               	clrf	13	;volatile
   536                           
   537                           ;usb_switcher2-2.c: 76: 
   538  0606  0021               	movlb	1	; select bank1
   539  0607  018C               	clrf	12	;volatile
   540  0608                     l911:
   541                           
   542                           ;usb_switcher2-2.c: 77:         if (RB2==0) k=0;
   543  0608  30B8               	movlw	184
   544  0609  008D               	movwf	13	;volatile
   545  060A                     l913:
   546                           
   547                           ;usb_switcher2-2.c: 78: 
   548  060A  018E               	clrf	14	;volatile
   549                           
   550                           ;usb_switcher2-2.c: 79:         if (k>=100) RB6=0; else RB6=1;
   551  060B  30A0               	movlw	160
   552  060C  0024               	movlb	4	; select bank4
   553  060D  008D               	movwf	13	;volatile
   554                           
   555                           ;usb_switcher2-2.c: 81:         if((t>=1)) {
   556  060E  3001               	movlw	1
   557  060F  0020               	movlb	0	; select bank0
   558  0610  008C               	movwf	12	;volatile
   559  0611                     l915:
   560                           
   561                           ;usb_switcher2-2.c: 82:             t++;
   562  0611  018D               	clrf	13	;volatile
   563  0612                     l917:
   564                           
   565                           ;usb_switcher2-2.c: 83:         };
   566  0612  3001               	movlw	1
   567  0613  008E               	movwf	14	;volatile
   568  0614  2E85               	goto	l961
   569  0615                     l919:
   570  0615  300A               	movlw	10
   571  0616  00F0               	movwf	Delay_ms@DELAY_CNT
   572  0617  3000               	movlw	0
   573  0618  00F1               	movwf	Delay_ms@DELAY_CNT+1
   574  0619  3185  25D7  3185   	fcall	_Delay_ms
   575  061C                     l921:
   576  061C  0020               	movlb	0	; select bank0
   577  061D  1E8D               	btfss	13,5	;volatile
   578  061E  2E20               	goto	u471
   579  061F  2E21               	goto	u470
   580  0620                     u471:
   581  0620  2E15               	goto	l919
   582  0621                     u470:
   583  0621                     l923:
   584                           
   585                           ;usb_switcher2-2.c: 89:         if(t>=50000) {
   586  0621  3001               	movlw	1
   587  0622  07A8               	addwf	main@i,f
   588  0623  3000               	movlw	0
   589  0624  3DA9               	addwfc	main@i+1,f
   590  0625  0829               	movf	main@i+1,w
   591  0626  3A80               	xorlw	128
   592  0627  00F5               	movwf	??_main
   593  0628  3080               	movlw	128
   594  0629  0275               	subwf	??_main,w
   595  062A  1D03               	skipz
   596  062B  2E2E               	goto	u485
   597  062C  3008               	movlw	8
   598  062D  0228               	subwf	main@i,w
   599  062E                     u485:
   600  062E  1C03               	skipc
   601  062F  2E31               	goto	u481
   602  0630  2E32               	goto	u480
   603  0631                     u481:
   604  0631  2E35               	goto	l927
   605  0632                     u480:
   606  0632                     l925:
   607  0632  0020               	movlb	0	; select bank0
   608  0633  01A8               	clrf	main@i
   609  0634  01A9               	clrf	main@i+1
   610  0635                     l927:
   611                           
   612                           ;usb_switcher2-2.c: 90:             t = 0;
   613  0635  3000               	movlw	0
   614  0636  0020               	movlb	0	; select bank0
   615  0637  00A7               	movwf	main@t+3
   616  0638  3000               	movlw	0
   617  0639  00A6               	movwf	main@t+2
   618  063A  3000               	movlw	0
   619  063B  00A5               	movwf	main@t+1
   620  063C  3001               	movlw	1
   621  063D  00A4               	movwf	main@t
   622  063E                     l929:
   623                           
   624                           ;usb_switcher2-2.c: 92:             if(i==1) PORTC = 0b00000010;
   625  063E  0828               	movf	main@i,w
   626  063F  0429               	iorwf	main@i+1,w
   627  0640  1D03               	btfss	3,2
   628  0641  2E43               	goto	u491
   629  0642  2E44               	goto	u490
   630  0643                     u491:
   631  0643  2E46               	goto	l933
   632  0644                     u490:
   633  0644                     l931:
   634  0644  3001               	movlw	1
   635  0645  008C               	movwf	12	;volatile
   636  0646                     l933:
   637                           
   638                           ;usb_switcher2-2.c: 93:             if(i==2) PORTC = 0b00000100;
   639  0646  0328               	decf	main@i,w
   640  0647  0429               	iorwf	main@i+1,w
   641  0648  1D03               	btfss	3,2
   642  0649  2E4B               	goto	u501
   643  064A  2E4C               	goto	u500
   644  064B                     u501:
   645  064B  2E4E               	goto	l937
   646  064C                     u500:
   647  064C                     l935:
   648  064C  3002               	movlw	2
   649  064D  008C               	movwf	12	;volatile
   650  064E                     l937:
   651                           
   652                           ;usb_switcher2-2.c: 94:             if(i==3) PORTC = 0b00001000;
   653  064E  3002               	movlw	2
   654  064F  0628               	xorwf	main@i,w
   655  0650  0429               	iorwf	main@i+1,w
   656  0651  1D03               	btfss	3,2
   657  0652  2E54               	goto	u511
   658  0653  2E55               	goto	u510
   659  0654                     u511:
   660  0654  2E57               	goto	l941
   661  0655                     u510:
   662  0655                     l939:
   663  0655  3004               	movlw	4
   664  0656  008C               	movwf	12	;volatile
   665  0657                     l941:
   666                           
   667                           ;usb_switcher2-2.c: 95:             if(i==4) PORTC = 0b00010000;
   668  0657  3003               	movlw	3
   669  0658  0628               	xorwf	main@i,w
   670  0659  0429               	iorwf	main@i+1,w
   671  065A  1D03               	btfss	3,2
   672  065B  2E5D               	goto	u521
   673  065C  2E5E               	goto	u520
   674  065D                     u521:
   675  065D  2E60               	goto	l945
   676  065E                     u520:
   677  065E                     l943:
   678  065E  3008               	movlw	8
   679  065F  008C               	movwf	12	;volatile
   680  0660                     l945:
   681                           
   682                           ;usb_switcher2-2.c: 96:             if(i==5) PORTC = 0b00100000;
   683  0660  3004               	movlw	4
   684  0661  0628               	xorwf	main@i,w
   685  0662  0429               	iorwf	main@i+1,w
   686  0663  1D03               	btfss	3,2
   687  0664  2E66               	goto	u531
   688  0665  2E67               	goto	u530
   689  0666                     u531:
   690  0666  2E69               	goto	l949
   691  0667                     u530:
   692  0667                     l947:
   693  0667  3010               	movlw	16
   694  0668  008C               	movwf	12	;volatile
   695  0669                     l949:
   696                           
   697                           ;usb_switcher2-2.c: 97:             if(i==6) PORTC = 0b01000000;
   698  0669  3005               	movlw	5
   699  066A  0628               	xorwf	main@i,w
   700  066B  0429               	iorwf	main@i+1,w
   701  066C  1D03               	btfss	3,2
   702  066D  2E6F               	goto	u541
   703  066E  2E70               	goto	u540
   704  066F                     u541:
   705  066F  2E72               	goto	l953
   706  0670                     u540:
   707  0670                     l951:
   708  0670  3020               	movlw	32
   709  0671  008C               	movwf	12	;volatile
   710  0672                     l953:
   711                           
   712                           ;usb_switcher2-2.c: 98:             if(i==7) PORTC = 0b10000000;
   713  0672  3006               	movlw	6
   714  0673  0628               	xorwf	main@i,w
   715  0674  0429               	iorwf	main@i+1,w
   716  0675  1D03               	btfss	3,2
   717  0676  2E78               	goto	u551
   718  0677  2E79               	goto	u550
   719  0678                     u551:
   720  0678  2E7B               	goto	l957
   721  0679                     u550:
   722  0679                     l955:
   723  0679  3040               	movlw	64
   724  067A  008C               	movwf	12	;volatile
   725  067B                     l957:
   726                           
   727                           ;usb_switcher2-2.c: 99:         };
   728  067B  3007               	movlw	7
   729  067C  0628               	xorwf	main@i,w
   730  067D  0429               	iorwf	main@i+1,w
   731  067E  1D03               	btfss	3,2
   732  067F  2E81               	goto	u561
   733  0680  2E82               	goto	u560
   734  0681                     u561:
   735  0681  2E85               	goto	l961
   736  0682                     u560:
   737  0682                     l959:
   738  0682  3080               	movlw	128
   739  0683  008C               	movwf	12	;volatile
   740  0684  2E85               	goto	l961
   741  0685                     l48:	
   742                           ;usb_switcher2-2.c: 100: 
   743                           
   744  0685                     l961:
   745                           
   746                           ;usb_switcher2-2.c: 87:         };
   747  0685  1E8D               	btfss	13,5	;volatile
   748  0686  2E88               	goto	u571
   749  0687  2E89               	goto	u570
   750  0688                     u571:
   751  0688  2E1C               	goto	l921
   752  0689                     u570:
   753  0689  2EF0               	goto	l1005
   754  068A                     l963:
   755  068A  300A               	movlw	10
   756  068B  00F0               	movwf	Delay_ms@DELAY_CNT
   757  068C  3000               	movlw	0
   758  068D  00F1               	movwf	Delay_ms@DELAY_CNT+1
   759  068E  3185  25D7  3185   	fcall	_Delay_ms
   760  0691                     l965:
   761  0691  0020               	movlb	0	; select bank0
   762  0692  1F8D               	btfss	13,7	;volatile
   763  0693  2E95               	goto	u581
   764  0694  2E96               	goto	u580
   765  0695                     u581:
   766  0695  2E8A               	goto	l963
   767  0696                     u580:
   768  0696                     l967:
   769  0696  30FF               	movlw	255
   770  0697  07A8               	addwf	main@i,f
   771  0698  30FF               	movlw	255
   772  0699  3DA9               	addwfc	main@i+1,f
   773  069A                     l969:
   774  069A  1FA9               	btfss	main@i+1,7
   775  069B  2E9D               	goto	u591
   776  069C  2E9E               	goto	u590
   777  069D                     u591:
   778  069D  2EA2               	goto	l68
   779  069E                     u590:
   780  069E                     l971:
   781  069E  3007               	movlw	7
   782  069F  00A8               	movwf	main@i
   783  06A0  3000               	movlw	0
   784  06A1  00A9               	movwf	main@i+1
   785  06A2                     l68:
   786  06A2  3000               	movlw	0
   787  06A3  00A7               	movwf	main@t+3
   788  06A4  3000               	movlw	0
   789  06A5  00A6               	movwf	main@t+2
   790  06A6  3000               	movlw	0
   791  06A7  00A5               	movwf	main@t+1
   792  06A8  3001               	movlw	1
   793  06A9  00A4               	movwf	main@t
   794  06AA                     l973:
   795  06AA  0828               	movf	main@i,w
   796  06AB  0429               	iorwf	main@i+1,w
   797  06AC  1D03               	btfss	3,2
   798  06AD  2EAF               	goto	u601
   799  06AE  2EB0               	goto	u600
   800  06AF                     u601:
   801  06AF  2EB2               	goto	l977
   802  06B0                     u600:
   803  06B0                     l975:
   804  06B0  3001               	movlw	1
   805  06B1  008C               	movwf	12	;volatile
   806  06B2                     l977:
   807  06B2  0328               	decf	main@i,w
   808  06B3  0429               	iorwf	main@i+1,w
   809  06B4  1D03               	btfss	3,2
   810  06B5  2EB7               	goto	u611
   811  06B6  2EB8               	goto	u610
   812  06B7                     u611:
   813  06B7  2EBA               	goto	l981
   814  06B8                     u610:
   815  06B8                     l979:
   816  06B8  3002               	movlw	2
   817  06B9  008C               	movwf	12	;volatile
   818  06BA                     l981:
   819  06BA  3002               	movlw	2
   820  06BB  0628               	xorwf	main@i,w
   821  06BC  0429               	iorwf	main@i+1,w
   822  06BD  1D03               	btfss	3,2
   823  06BE  2EC0               	goto	u621
   824  06BF  2EC1               	goto	u620
   825  06C0                     u621:
   826  06C0  2EC3               	goto	l985
   827  06C1                     u620:
   828  06C1                     l983:
   829  06C1  3004               	movlw	4
   830  06C2  008C               	movwf	12	;volatile
   831  06C3                     l985:
   832  06C3  3003               	movlw	3
   833  06C4  0628               	xorwf	main@i,w
   834  06C5  0429               	iorwf	main@i+1,w
   835  06C6  1D03               	btfss	3,2
   836  06C7  2EC9               	goto	u631
   837  06C8  2ECA               	goto	u630
   838  06C9                     u631:
   839  06C9  2ECC               	goto	l989
   840  06CA                     u630:
   841  06CA                     l987:
   842  06CA  3008               	movlw	8
   843  06CB  008C               	movwf	12	;volatile
   844  06CC                     l989:
   845  06CC  3004               	movlw	4
   846  06CD  0628               	xorwf	main@i,w
   847  06CE  0429               	iorwf	main@i+1,w
   848  06CF  1D03               	btfss	3,2
   849  06D0  2ED2               	goto	u641
   850  06D1  2ED3               	goto	u640
   851  06D2                     u641:
   852  06D2  2ED5               	goto	l993
   853  06D3                     u640:
   854  06D3                     l991:
   855  06D3  3010               	movlw	16
   856  06D4  008C               	movwf	12	;volatile
   857  06D5                     l993:
   858  06D5  3005               	movlw	5
   859  06D6  0628               	xorwf	main@i,w
   860  06D7  0429               	iorwf	main@i+1,w
   861  06D8  1D03               	btfss	3,2
   862  06D9  2EDB               	goto	u651
   863  06DA  2EDC               	goto	u650
   864  06DB                     u651:
   865  06DB  2EDE               	goto	l997
   866  06DC                     u650:
   867  06DC                     l995:
   868  06DC  3020               	movlw	32
   869  06DD  008C               	movwf	12	;volatile
   870  06DE                     l997:
   871  06DE  3006               	movlw	6
   872  06DF  0628               	xorwf	main@i,w
   873  06E0  0429               	iorwf	main@i+1,w
   874  06E1  1D03               	btfss	3,2
   875  06E2  2EE4               	goto	u661
   876  06E3  2EE5               	goto	u660
   877  06E4                     u661:
   878  06E4  2EE7               	goto	l1001
   879  06E5                     u660:
   880  06E5                     l999:
   881  06E5  3040               	movlw	64
   882  06E6  008C               	movwf	12	;volatile
   883  06E7                     l1001:
   884  06E7  3007               	movlw	7
   885  06E8  0628               	xorwf	main@i,w
   886  06E9  0429               	iorwf	main@i+1,w
   887  06EA  1D03               	btfss	3,2
   888  06EB  2EED               	goto	u671
   889  06EC  2EEE               	goto	u670
   890  06ED                     u671:
   891  06ED  2EF0               	goto	l1005
   892  06EE                     u670:
   893  06EE                     l1003:
   894  06EE  3080               	movlw	128
   895  06EF  008C               	movwf	12	;volatile
   896  06F0                     l1005:
   897                           
   898                           ;usb_switcher2-2.c: 102: 
   899  06F0  1F8D               	btfss	13,7	;volatile
   900  06F1  2EF3               	goto	u681
   901  06F2  2EF4               	goto	u680
   902  06F3                     u681:
   903  06F3  2E91               	goto	l965
   904  06F4                     u680:
   905  06F4                     l77:
   906  06F4  1A0D               	btfsc	13,4	;volatile
   907  06F5  2EF7               	goto	u691
   908  06F6  2EF8               	goto	u690
   909  06F7                     u691:
   910  06F7  2EFC               	goto	l82
   911  06F8                     u690:
   912  06F8                     l1007:
   913  06F8  1D8D               	btfss	13,3	;volatile
   914  06F9  2EFB               	goto	u701
   915  06FA  2EFC               	goto	u700
   916  06FB                     u701:
   917  06FB  2F04               	goto	l1011
   918  06FC                     u700:
   919  06FC                     l82:
   920  06FC  1E0D               	btfss	13,4	;volatile
   921  06FD  2EFF               	goto	u711
   922  06FE  2F00               	goto	u710
   923  06FF                     u711:
   924  06FF  2F07               	goto	l1013
   925  0700                     u710:
   926  0700                     l1009:
   927  0700  1D8D               	btfss	13,3	;volatile
   928  0701  2F03               	goto	u721
   929  0702  2F04               	goto	u720
   930  0703                     u721:
   931  0703  2F07               	goto	l1013
   932  0704                     u720:
   933  0704                     l1011:
   934  0704  01A2               	clrf	main@j
   935  0705  01A3               	clrf	main@j+1
   936  0706  2F0B               	goto	l83
   937  0707                     l1013:
   938  0707  3001               	movlw	1
   939  0708  07A2               	addwf	main@j,f
   940  0709  3000               	movlw	0
   941  070A  3DA3               	addwfc	main@j+1,f
   942  070B                     l83:
   943  070B  0823               	movf	main@j+1,w
   944  070C  3A80               	xorlw	128
   945  070D  00F5               	movwf	??_main
   946  070E  3080               	movlw	128
   947  070F  0275               	subwf	??_main,w
   948  0710  1D03               	skipz
   949  0711  2F14               	goto	u735
   950  0712  3001               	movlw	1
   951  0713  0222               	subwf	main@j,w
   952  0714                     u735:
   953  0714  1C03               	skipc
   954  0715  2F17               	goto	u731
   955  0716  2F18               	goto	u730
   956  0717                     u731:
   957  0717  2F28               	goto	l1019
   958  0718                     u730:
   959  0718                     l1015:
   960  0718  0020               	movlb	0	; select bank0
   961  0719  0823               	movf	main@j+1,w
   962  071A  3A80               	xorlw	128
   963  071B  00F5               	movwf	??_main
   964  071C  3081               	movlw	129
   965  071D  0275               	subwf	??_main,w
   966  071E  1D03               	skipz
   967  071F  2F22               	goto	u745
   968  0720  30F5               	movlw	245
   969  0721  0222               	subwf	main@j,w
   970  0722                     u745:
   971  0722  1803               	skipnc
   972  0723  2F25               	goto	u741
   973  0724  2F26               	goto	u740
   974  0725                     u741:
   975  0725  2F28               	goto	l1019
   976  0726                     u740:
   977  0726                     l1017:
   978  0726  0020               	movlb	0	; select bank0
   979  0727  110D               	bcf	13,2	;volatile
   980  0728                     l1019:
   981  0728  0020               	movlb	0	; select bank0
   982  0729  0823               	movf	main@j+1,w
   983  072A  3A80               	xorlw	128
   984  072B  00F5               	movwf	??_main
   985  072C  3085               	movlw	133
   986  072D  0275               	subwf	??_main,w
   987  072E  1D03               	skipz
   988  072F  2F32               	goto	u755
   989  0730  30DD               	movlw	221
   990  0731  0222               	subwf	main@j,w
   991  0732                     u755:
   992  0732  1C03               	skipc
   993  0733  2F35               	goto	u751
   994  0734  2F36               	goto	u750
   995  0735                     u751:
   996  0735  2F3D               	goto	l85
   997  0736                     u750:
   998  0736                     l1021:
   999  0736  0020               	movlb	0	; select bank0
  1000  0737  110D               	bcf	13,2	;volatile
  1001  0738                     l1023:
  1002  0738  30DC               	movlw	220
  1003  0739  00A2               	movwf	main@j
  1004  073A  3005               	movlw	5
  1005  073B  00A3               	movwf	main@j+1
  1006  073C  2F3F               	goto	l86
  1007  073D                     l85:
  1008  073D  0020               	movlb	0	; select bank0
  1009  073E  150D               	bsf	13,2	;volatile
  1010  073F                     l86:
  1011  073F  1D0D               	btfss	13,2	;volatile
  1012  0740  2F42               	goto	u761
  1013  0741  2F43               	goto	u760
  1014  0742                     u761:
  1015  0742  2F59               	goto	l1029
  1016  0743                     u760:
  1017  0743                     l1025:
  1018  0743  3001               	movlw	1
  1019  0744  07A0               	addwf	main@k,f
  1020  0745  3000               	movlw	0
  1021  0746  3DA1               	addwfc	main@k+1,f
  1022  0747  0821               	movf	main@k+1,w
  1023  0748  3A80               	xorlw	128
  1024  0749  00F5               	movwf	??_main
  1025  074A  3080               	movlw	128
  1026  074B  0275               	subwf	??_main,w
  1027  074C  1D03               	skipz
  1028  074D  2F50               	goto	u775
  1029  074E  3065               	movlw	101
  1030  074F  0220               	subwf	main@k,w
  1031  0750                     u775:
  1032  0750  1C03               	skipc
  1033  0751  2F53               	goto	u771
  1034  0752  2F54               	goto	u770
  1035  0753                     u771:
  1036  0753  2F59               	goto	l1029
  1037  0754                     u770:
  1038  0754                     l1027:
  1039  0754  3064               	movlw	100
  1040  0755  0020               	movlb	0	; select bank0
  1041  0756  00A0               	movwf	main@k
  1042  0757  3000               	movlw	0
  1043  0758  00A1               	movwf	main@k+1
  1044  0759                     l1029:
  1045  0759  0020               	movlb	0	; select bank0
  1046  075A  190D               	btfsc	13,2	;volatile
  1047  075B  2F5D               	goto	u781
  1048  075C  2F5E               	goto	u780
  1049  075D                     u781:
  1050  075D  2F60               	goto	l1033
  1051  075E                     u780:
  1052  075E                     l1031:
  1053  075E  01A0               	clrf	main@k
  1054  075F  01A1               	clrf	main@k+1
  1055  0760                     l1033:
  1056  0760  0821               	movf	main@k+1,w
  1057  0761  3A80               	xorlw	128
  1058  0762  00F5               	movwf	??_main
  1059  0763  3080               	movlw	128
  1060  0764  0275               	subwf	??_main,w
  1061  0765  1D03               	skipz
  1062  0766  2F69               	goto	u795
  1063  0767  3064               	movlw	100
  1064  0768  0220               	subwf	main@k,w
  1065  0769                     u795:
  1066  0769  1C03               	skipc
  1067  076A  2F6C               	goto	u791
  1068  076B  2F6D               	goto	u790
  1069  076C                     u791:
  1070  076C  2F70               	goto	l90
  1071  076D                     u790:
  1072  076D                     l1035:
  1073  076D  0020               	movlb	0	; select bank0
  1074  076E  130D               	bcf	13,6	;volatile
  1075  076F  2F72               	goto	l1037
  1076  0770                     l90:
  1077  0770  0020               	movlb	0	; select bank0
  1078  0771  170D               	bsf	13,6	;volatile
  1079  0772                     l1037:
  1080  0772  1BA7               	btfsc	main@t+3,7
  1081  0773  2F82               	goto	u801
  1082  0774  0827               	movf	main@t+3,w
  1083  0775  1D03               	btfss	3,2
  1084  0776  2F83               	goto	u800
  1085  0777  0826               	movf	main@t+2,w
  1086  0778  1D03               	btfss	3,2
  1087  0779  2F83               	goto	u800
  1088  077A  0825               	movf	main@t+1,w
  1089  077B  1D03               	btfss	3,2
  1090  077C  2F83               	goto	u800
  1091  077D  3001               	movlw	1
  1092  077E  0224               	subwf	main@t,w
  1093  077F  1C03               	btfss	3,0
  1094  0780  2F82               	goto	u801
  1095  0781  2F83               	goto	u800
  1096  0782                     u801:
  1097  0782  2F8B               	goto	l1041
  1098  0783                     u800:
  1099  0783                     l1039:
  1100  0783  3001               	movlw	1
  1101  0784  07A4               	addwf	main@t,f
  1102  0785  3000               	movlw	0
  1103  0786  3DA5               	addwfc	main@t+1,f
  1104  0787  3000               	movlw	0
  1105  0788  3DA6               	addwfc	main@t+2,f
  1106  0789  3000               	movlw	0
  1107  078A  3DA7               	addwfc	main@t+3,f
  1108  078B                     l1041:
  1109  078B  1BA7               	btfsc	main@t+3,7
  1110  078C  2F9A               	goto	u811
  1111  078D  0827               	movf	main@t+3,w
  1112  078E  1D03               	btfss	3,2
  1113  078F  2F9B               	goto	u810
  1114  0790  0826               	movf	main@t+2,w
  1115  0791  1D03               	btfss	3,2
  1116  0792  2F9B               	goto	u810
  1117  0793  3010               	movlw	16
  1118  0794  0224               	subwf	main@t,w
  1119  0795  3027               	movlw	39
  1120  0796  3B25               	subwfb	main@t+1,w
  1121  0797  1C03               	btfss	3,0
  1122  0798  2F9A               	goto	u811
  1123  0799  2F9B               	goto	u810
  1124  079A                     u811:
  1125  079A  2F9C               	goto	l1045
  1126  079B                     u810:
  1127  079B                     l1043:
  1128  079B  018E               	clrf	14	;volatile
  1129  079C                     l1045:
  1130  079C  1BA7               	btfsc	main@t+3,7
  1131  079D  2FAB               	goto	u821
  1132  079E  0827               	movf	main@t+3,w
  1133  079F  1D03               	btfss	3,2
  1134  07A0  2FAC               	goto	u820
  1135  07A1  0826               	movf	main@t+2,w
  1136  07A2  1D03               	btfss	3,2
  1137  07A3  2FAC               	goto	u820
  1138  07A4  3050               	movlw	80
  1139  07A5  0224               	subwf	main@t,w
  1140  07A6  30C3               	movlw	195
  1141  07A7  3B25               	subwfb	main@t+1,w
  1142  07A8  1C03               	btfss	3,0
  1143  07A9  2FAB               	goto	u821
  1144  07AA  2FAC               	goto	u820
  1145  07AB                     u821:
  1146  07AB  2E85               	goto	l961
  1147  07AC                     u820:
  1148  07AC                     l1047:
  1149  07AC  3000               	movlw	0
  1150  07AD  00A7               	movwf	main@t+3
  1151  07AE  3000               	movlw	0
  1152  07AF  00A6               	movwf	main@t+2
  1153  07B0  3000               	movlw	0
  1154  07B1  00A5               	movwf	main@t+1
  1155  07B2  3000               	movlw	0
  1156  07B3  00A4               	movwf	main@t
  1157  07B4                     l1049:
  1158  07B4  0828               	movf	main@i,w
  1159  07B5  0429               	iorwf	main@i+1,w
  1160  07B6  1D03               	btfss	3,2
  1161  07B7  2FB9               	goto	u831
  1162  07B8  2FBA               	goto	u830
  1163  07B9                     u831:
  1164  07B9  2FBC               	goto	l1053
  1165  07BA                     u830:
  1166  07BA                     l1051:
  1167  07BA  3001               	movlw	1
  1168  07BB  008E               	movwf	14	;volatile
  1169  07BC                     l1053:
  1170  07BC  0328               	decf	main@i,w
  1171  07BD  0429               	iorwf	main@i+1,w
  1172  07BE  1D03               	btfss	3,2
  1173  07BF  2FC1               	goto	u841
  1174  07C0  2FC2               	goto	u840
  1175  07C1                     u841:
  1176  07C1  2FC4               	goto	l1057
  1177  07C2                     u840:
  1178  07C2                     l1055:
  1179  07C2  3002               	movlw	2
  1180  07C3  008E               	movwf	14	;volatile
  1181  07C4                     l1057:
  1182  07C4  3002               	movlw	2
  1183  07C5  0628               	xorwf	main@i,w
  1184  07C6  0429               	iorwf	main@i+1,w
  1185  07C7  1D03               	btfss	3,2
  1186  07C8  2FCA               	goto	u851
  1187  07C9  2FCB               	goto	u850
  1188  07CA                     u851:
  1189  07CA  2FCD               	goto	l1061
  1190  07CB                     u850:
  1191  07CB                     l1059:
  1192  07CB  3004               	movlw	4
  1193  07CC  008E               	movwf	14	;volatile
  1194  07CD                     l1061:
  1195  07CD  3003               	movlw	3
  1196  07CE  0628               	xorwf	main@i,w
  1197  07CF  0429               	iorwf	main@i+1,w
  1198  07D0  1D03               	btfss	3,2
  1199  07D1  2FD3               	goto	u861
  1200  07D2  2FD4               	goto	u860
  1201  07D3                     u861:
  1202  07D3  2FD6               	goto	l1065
  1203  07D4                     u860:
  1204  07D4                     l1063:
  1205  07D4  3008               	movlw	8
  1206  07D5  008E               	movwf	14	;volatile
  1207  07D6                     l1065:
  1208  07D6  3004               	movlw	4
  1209  07D7  0628               	xorwf	main@i,w
  1210  07D8  0429               	iorwf	main@i+1,w
  1211  07D9  1D03               	btfss	3,2
  1212  07DA  2FDC               	goto	u871
  1213  07DB  2FDD               	goto	u870
  1214  07DC                     u871:
  1215  07DC  2FDF               	goto	l1069
  1216  07DD                     u870:
  1217  07DD                     l1067:
  1218  07DD  3010               	movlw	16
  1219  07DE  008E               	movwf	14	;volatile
  1220  07DF                     l1069:
  1221  07DF  3005               	movlw	5
  1222  07E0  0628               	xorwf	main@i,w
  1223  07E1  0429               	iorwf	main@i+1,w
  1224  07E2  1D03               	btfss	3,2
  1225  07E3  2FE5               	goto	u881
  1226  07E4  2FE6               	goto	u880
  1227  07E5                     u881:
  1228  07E5  2FE8               	goto	l1073
  1229  07E6                     u880:
  1230  07E6                     l1071:
  1231  07E6  3020               	movlw	32
  1232  07E7  008E               	movwf	14	;volatile
  1233  07E8                     l1073:
  1234  07E8  3006               	movlw	6
  1235  07E9  0628               	xorwf	main@i,w
  1236  07EA  0429               	iorwf	main@i+1,w
  1237  07EB  1D03               	btfss	3,2
  1238  07EC  2FEE               	goto	u891
  1239  07ED  2FEF               	goto	u890
  1240  07EE                     u891:
  1241  07EE  2FF1               	goto	l1077
  1242  07EF                     u890:
  1243  07EF                     l1075:
  1244  07EF  3040               	movlw	64
  1245  07F0  008E               	movwf	14	;volatile
  1246  07F1                     l1077:
  1247  07F1  3007               	movlw	7
  1248  07F2  0628               	xorwf	main@i,w
  1249  07F3  0429               	iorwf	main@i+1,w
  1250  07F4  1D03               	btfss	3,2
  1251  07F5  2FF7               	goto	u901
  1252  07F6  2FF8               	goto	u900
  1253  07F7                     u901:
  1254  07F7  2E85               	goto	l48
  1255  07F8                     u900:
  1256  07F8                     l1079:
  1257  07F8  3080               	movlw	128
  1258  07F9  008E               	movwf	14	;volatile
  1259  07FA  2E85               	goto	l961
  1260  07FB  3180  2802         	ljmp	start
  1261  07FD                     __end_of_main:
  1262                           
  1263                           	psect	text1
  1264  05D7                     __ptext1:	
  1265 ;; *************** function _Delay_ms *****************
  1266 ;; Defined at:
  1267 ;;		line 59 in file "usb_switcher2-2.c"
  1268 ;; Parameters:    Size  Location     Type
  1269 ;;  DELAY_CNT       2    0[COMMON] unsigned int 
  1270 ;; Auto vars:     Size  Location     Type
  1271 ;;  i               2    3[COMMON] unsigned int 
  1272 ;; Return value:  Size  Location     Type
  1273 ;;                  1    wreg      void 
  1274 ;; Registers used:
  1275 ;;		wreg, status,2
  1276 ;; Tracked objects:
  1277 ;;		On entry : 0/0
  1278 ;;		On exit  : 0/0
  1279 ;;		Unchanged: 0/0
  1280 ;; Data sizes:     COMMON   BANK0   BANK1   BANK2   BANK3   BANK4   BANK5   BANK6   BANK7   BANK8   BANK9  BANK10  BANK1
      +1  BANK12
  1281 ;;      Params:         2       0       0       0       0       0       0       0       0       0       0       0       
      +0       0
  1282 ;;      Locals:         2       0       0       0       0       0       0       0       0       0       0       0       
      +0       0
  1283 ;;      Temps:          1       0       0       0       0       0       0       0       0       0       0       0       
      +0       0
  1284 ;;      Totals:         5       0       0       0       0       0       0       0       0       0       0       0       
      +0       0
  1285 ;;Total ram usage:        5 bytes
  1286 ;; Hardware stack levels used:    1
  1287 ;; This function calls:
  1288 ;;		Nothing
  1289 ;; This function is called by:
  1290 ;;		_main
  1291 ;; This function uses a non-reentrant model
  1292 ;;
  1293                           
  1294                           
  1295                           ;psect for function _Delay_ms
  1296  05D7                     _Delay_ms:
  1297  05D7                     l897:	
  1298                           ;incstack = 0
  1299                           ; Regs used in _Delay_ms: [wreg+status,2]
  1300                           
  1301                           
  1302                           ;usb_switcher2-2.c: 60: 
  1303  05D7  01F3               	clrf	Delay_ms@i
  1304  05D8  01F4               	clrf	Delay_ms@i+1
  1305  05D9  2DE5               	goto	l39
  1306  05DA                     l899:
  1307                           
  1308                           ;usb_switcher2-2.c: 61: 
  1309  05DA  3003               	movlw	3
  1310  05DB  00F2               	movwf	??_Delay_ms
  1311  05DC  3098               	movlw	152
  1312  05DD                     u917:
  1313  05DD  0B89               	decfsz	9,f
  1314  05DE  2DDD               	goto	u917
  1315  05DF  0BF2               	decfsz	??_Delay_ms,f
  1316  05E0  2DDD               	goto	u917
  1317                           
  1318                           ;usb_switcher2-2.c: 62: 
  1319  05E1  3001               	movlw	1
  1320  05E2  07F3               	addwf	Delay_ms@i,f
  1321  05E3  3000               	movlw	0
  1322  05E4  3DF4               	addwfc	Delay_ms@i+1,f
  1323  05E5                     l39:
  1324  05E5  0871               	movf	Delay_ms@DELAY_CNT+1,w
  1325  05E6  0274               	subwf	Delay_ms@i+1,w
  1326  05E7  1D03               	skipz
  1327  05E8  2DEB               	goto	u465
  1328  05E9  0870               	movf	Delay_ms@DELAY_CNT,w
  1329  05EA  0273               	subwf	Delay_ms@i,w
  1330  05EB                     u465:
  1331  05EB  1C03               	skipc
  1332  05EC  2DEE               	goto	u461
  1333  05ED  2DEF               	goto	u460
  1334  05EE                     u461:
  1335  05EE  2DDA               	goto	l899
  1336  05EF                     u460:
  1337  05EF                     l42:
  1338  05EF  0008               	return
  1339  05F0                     __end_of_Delay_ms:
  1340  007E                     btemp	set	126	;btemp
  1341  007E                     wtemp0	set	126
  1342                           
  1343                           	psect	config
  1344                           
  1345                           ;Config register CONFIG1 @ 0x8007
  1346                           ;	Oscillator Selection
  1347                           ;	FOSC = INTOSC, INTOSC oscillator: I/O function on CLKIN pin
  1348                           ;	Watchdog Timer Enable
  1349                           ;	WDTE = OFF, WDT disabled
  1350                           ;	Power-up Timer Enable
  1351                           ;	PWRTE = OFF, PWRT disabled
  1352                           ;	MCLR Pin Function Select
  1353                           ;	MCLRE = ON, MCLR/VPP pin function is MCLR
  1354                           ;	Flash Program Memory Code Protection
  1355                           ;	CP = OFF, Program memory code protection is disabled
  1356                           ;	Data Memory Code Protection
  1357                           ;	CPD = OFF, Data memory code protection is disabled
  1358                           ;	Brown-out Reset Enable
  1359                           ;	BOREN = OFF, Brown-out Reset disabled
  1360                           ;	Clock Out Enable
  1361                           ;	CLKOUTEN = OFF, CLKOUT function is disabled. I/O or oscillator function on the CLKOUT 
      +                          pin
  1362                           ;	Internal/External Switchover
  1363                           ;	IESO = ON, Internal/External Switchover mode is enabled
  1364                           ;	Fail-Safe Clock Monitor Enable
  1365                           ;	FCMEN = OFF, Fail-Safe Clock Monitor is disabled
  1366  8007                     	org	32775
  1367  8007  19E4               	dw	6628
  1368                           
  1369                           ;Config register CONFIG2 @ 0x8008
  1370                           ;	Flash Memory Self-Write Protection
  1371                           ;	WRT = OFF, Write protection off
  1372                           ;	Voltage Regulator Capacitor Enable
  1373                           ;	VCAPEN = OFF, All VCAP pin functionality is disabled
  1374                           ;	PLL Enable
  1375                           ;	PLLEN = OFF, 4x PLL disabled
  1376                           ;	Stack Overflow/Underflow Reset Enable
  1377                           ;	STVREN = ON, Stack Overflow or Underflow will cause a Reset
  1378                           ;	Brown-out Reset Voltage Selection
  1379                           ;	BORV = LO, Brown-out Reset Voltage (Vbor), low trip point selected.
  1380                           ;	Low-Voltage Programming Enable
  1381                           ;	LVP = OFF, High-voltage on MCLR/VPP must be used for programming
  1382  8008                     	org	32776
  1383  8008  1EFF               	dw	7935

Data Sizes:
    Strings     0
    Constant    0
    Data        0
    BSS         0
    Persistent  32
    Stack       0

Auto Spaces:
    Space          Size  Autos    Used
    COMMON           14      6       6
    BANK0            80     10      10
    BANK1            80      0       0
    BANK2            80      0       0
    BANK3            80      0       0
    BANK4            80      0       0
    BANK5            80      0       0
    BANK6            80      0       0
    BANK7            80      0       0
    BANK8            80      0       0
    BANK9            80      0       0
    BANK10           80      0       0
    BANK11           80      0       0
    BANK12           48      0       0

Pointer List with Targets:

    None.

Critical Paths under _main in COMMON

    _main->_Delay_ms

Critical Paths under _main in BANK0

    None.

Critical Paths under _main in BANK1

    None.

Critical Paths under _main in BANK2

    None.

Critical Paths under _main in BANK3

    None.

Critical Paths under _main in BANK4

    None.

Critical Paths under _main in BANK5

    None.

Critical Paths under _main in BANK6

    None.

Critical Paths under _main in BANK7

    None.

Critical Paths under _main in BANK8

    None.

Critical Paths under _main in BANK9

    None.

Critical Paths under _main in BANK10

    None.

Critical Paths under _main in BANK11

    None.

Critical Paths under _main in BANK12

    None.

Call Graph Tables:

 ---------------------------------------------------------------------------------
 (Depth) Function   	        Calls       Base Space   Used Autos Params    Refs
 ---------------------------------------------------------------------------------
 (0) _main                                                11    11      0     964
                                              5 COMMON     1     1      0
                                              0 BANK0     10    10      0
                           _Delay_ms
 ---------------------------------------------------------------------------------
 (1) _Delay_ms                                             5     3      2     198
                                              0 COMMON     5     3      2
 ---------------------------------------------------------------------------------
 Estimated maximum stack depth 1
 ---------------------------------------------------------------------------------

 Call Graph Graphs:

 _main (ROOT)
   _Delay_ms

 Address spaces:
Name               Size   Autos  Total    Cost      Usage
BIGRAM             3F0      0       0       0        0.0%
EEDATA             100      0       0       0        0.0%
NULL                 0      0       0       0        0.0%
CODE                 0      0       0       0        0.0%
BITCOMMON            E      0       0       1        0.0%
BITSFR0              0      0       0       1        0.0%
SFR0                 0      0       0       1        0.0%
COMMON               E      6       6       2       42.9%
BITSFR1              0      0       0       2        0.0%
SFR1                 0      0       0       2        0.0%
BITSFR2              0      0       0       3        0.0%
SFR2                 0      0       0       3        0.0%
STACK                0      0       0       3        0.0%
BITBANK0            50      0       0       4        0.0%
BITSFR3              0      0       0       4        0.0%
SFR3                 0      0       0       4        0.0%
BANK0               50      A       A       5       12.5%
BITSFR4              0      0       0       5        0.0%
SFR4                 0      0       0       5        0.0%
BITBANK1            50      0       0       6        0.0%
BITSFR5              0      0       0       6        0.0%
SFR5                 0      0       0       6        0.0%
BANK1               50      0       0       7        0.0%
BITSFR6              0      0       0       7        0.0%
SFR6                 0      0       0       7        0.0%
BITBANK2            50      0       0       8        0.0%
BITSFR7              0      0       0       8        0.0%
SFR7                 0      0       0       8        0.0%
BANK2               50      0       0       9        0.0%
BITSFR8              0      0       0       9        0.0%
SFR8                 0      0       0       9        0.0%
BITBANK3            50      0       0      10        0.0%
BITSFR9              0      0       0      10        0.0%
SFR9                 0      0       0      10        0.0%
BANK3               50      0       0      11        0.0%
BITSFR10             0      0       0      11        0.0%
SFR10                0      0       0      11        0.0%
BITBANK4            50      0       0      12        0.0%
BITSFR11             0      0       0      12        0.0%
SFR11                0      0       0      12        0.0%
BANK4               50      0       0      13        0.0%
BITSFR12             0      0       0      13        0.0%
SFR12                0      0       0      13        0.0%
BITBANK5            50      0       0      14        0.0%
BITSFR13             0      0       0      14        0.0%
SFR13                0      0       0      14        0.0%
BANK5               50      0       0      15        0.0%
BITSFR14             0      0       0      15        0.0%
SFR14                0      0       0      15        0.0%
BITBANK6            50      0       0      16        0.0%
BITSFR15             0      0       0      16        0.0%
SFR15                0      0       0      16        0.0%
BANK6               50      0       0      17        0.0%
BITSFR16             0      0       0      17        0.0%
SFR16                0      0       0      17        0.0%
BITBANK7            50      0       0      18        0.0%
BITSFR17             0      0       0      18        0.0%
SFR17                0      0       0      18        0.0%
BANK7               50      0       0      19        0.0%
BITSFR18             0      0       0      19        0.0%
SFR18                0      0       0      19        0.0%
BITSFR19             0      0       0      20        0.0%
SFR19                0      0       0      20        0.0%
ABS                  0      0       0      20        0.0%
BITBANK8            50      0       0      21        0.0%
BITSFR20             0      0       0      21        0.0%
SFR20                0      0       0      21        0.0%
BANK8               50      0       0      22        0.0%
BITSFR21             0      0       0      22        0.0%
SFR21                0      0       0      22        0.0%
BITBANK9            50      0       0      23        0.0%
BITSFR22             0      0       0      23        0.0%
SFR22                0      0       0      23        0.0%
BANK9               50      0       0      24        0.0%
BITSFR23             0      0       0      24        0.0%
SFR23                0      0       0      24        0.0%
BITBANK10           50      0       0      25        0.0%
BITSFR24             0      0       0      25        0.0%
SFR24                0      0       0      25        0.0%
BANK10              50      0       0      26        0.0%
BITSFR25             0      0       0      26        0.0%
SFR25                0      0       0      26        0.0%
BITBANK11           50      0       0      27        0.0%
BITSFR26             0      0       0      27        0.0%
SFR26                0      0       0      27        0.0%
BANK11              50      0       0      28        0.0%
BITSFR27             0      0       0      28        0.0%
SFR27                0      0       0      28        0.0%
BITBANK12           30      0       0      29        0.0%
BITSFR28             0      0       0      29        0.0%
SFR28                0      0       0      29        0.0%
BANK12              30      0       0      30        0.0%
BITSFR29             0      0       0      30        0.0%
SFR29                0      0       0      30        0.0%
BITSFR30             0      0       0      31        0.0%
SFR30                0      0       0      31        0.0%
DATA                 0      0       0      31        0.0%
BITSFR31             0      0       0      32        0.0%
SFR31                0      0       0      32        0.0%


Microchip Technology PIC Macro Assembler V2.20 build 20200408173844 
Symbol Table                                                                                   Wed Aug 12 15:50:06 2020

                     l42 05EF                       l39 05E5                       l48 0685  
                     l90 0770                       l82 06FC                       l83 070B  
                     l68 06A2                       l85 073D                       l77 06F4  
                     l86 073F                      l901 05F0                      l911 0608  
                    l903 05F3                      l921 061C                      l913 060A  
                    l905 05FB                      l931 0644                      l923 0621  
                    l915 0611                      l907 05FD                      l941 0657  
                    l933 0646                      l925 0632                      l917 0612  
                    l909 05FF                      l951 0670                      l943 065E  
                    l935 064C                      l927 0635                      l919 0615  
                    l953 0672                      l945 0660                      l937 064E  
                    l929 063E                      l961 0685                      l971 069E  
                    l963 068A                      l955 0679                      l947 0667  
                    l939 0655                      l981 06BA                      l973 06AA  
                    l965 0691                      l957 067B                      l949 0669  
                    l991 06D3                      l983 06C1                      l975 06B0  
                    l967 0696                      l959 0682                      l897 05D7  
                    l993 06D5                      l985 06C3                      l977 06B2  
                    l969 069A                      l899 05DA                      l995 06DC  
                    l987 06CA                      l979 06B8                      l997 06DE  
                    l989 06CC                      l999 06E5                      _RB2 006A  
                    _RB3 006B                      _RB4 006C                      _RB5 006D  
                    _RB6 006E                      _RB7 006F                      u500 064C  
                    u501 064B                      u510 0655                      u511 0654  
                    u600 06B0                      u520 065E                      u601 06AF  
                    u521 065D                      u610 06B8                      u530 0667  
                    u611 06B7                      u531 0666                      u460 05EF  
                    u700 06FC                      u620 06C1                      u540 0670  
                    u461 05EE                      u701 06FB                      u621 06C0  
                    u541 066F                      u710 0700                      u630 06CA  
                    u550 0679                      u470 0621                      u711 06FF  
                    u631 06C9                      u551 0678                      u471 0620  
                    u800 0783                      u720 0704                      u640 06D3  
                    u560 0682                      u480 0632                      u465 05EB  
                    u801 0782                      u721 0703                      u641 06D2  
                    u561 0681                      u481 0631                      u810 079B  
                    u730 0718                      u650 06DC                      u570 0689  
                    u490 0644                      u811 079A                      u731 0717  
                    u651 06DB                      u571 0688                      u491 0643  
                    u900 07F8                      u820 07AC                      u740 0726  
                    u660 06E5                      u580 0696                      u901 07F7  
                    u821 07AB                      u741 0725                      u661 06E4  
                    u581 0695                      u485 062E                      u830 07BA  
                    u750 0736                      u670 06EE                      u590 069E  
                    u831 07B9                      u751 0735                      u735 0714  
                    u671 06ED                      u591 069D                      u840 07C2  
                    u760 0743                      u680 06F4                      u841 07C1  
                    u761 0742                      u745 0722                      u681 06F3  
                    u850 07CB                      u770 0754                      u690 06F8  
                    u851 07CA                      u771 0753                      u755 0732  
                    u691 06F7                      u860 07D4                      u780 075E  
                    u917 05DD                      u861 07D3                      u781 075D  
                    u870 07DD                      u790 076D                      u871 07DC  
                    u791 076C                      u775 0750                      u880 07E6  
                    u881 07E5                      u890 07EF                      u891 07EE  
                    u795 0769                      wreg 0009                     l1001 06E7  
                   l1011 0704                     l1003 06EE                     l1021 0736  
                   l1013 0707                     l1005 06F0                     l1031 075E  
                   l1023 0738                     l1015 0718                     l1007 06F8  
                   l1041 078B                     l1033 0760                     l1025 0743  
                   l1017 0726                     l1009 0700                     l1051 07BA  
                   l1043 079B                     l1035 076D                     l1027 0754  
                   l1019 0728                     l1061 07CD                     l1053 07BC  
                   l1045 079C                     l1037 0772                     l1029 0759  
                   l1071 07E6                     l1063 07D4                     l1055 07C2  
                   l1047 07AC                     l1039 0783                     l1073 07E8  
                   l1065 07D6                     l1057 07C4                     l1049 07B4  
                   l1075 07EF                     l1067 07DD                     l1059 07CB  
                   l1077 07F1                     l1069 07DF                     l1079 07F8  
                   _WPUB 020D                     _main 05F0                     btemp 007E  
                   start 0002                    ?_main 0070                    _PORTA 000C  
                  _PORTB 000D                    _PORTC 000E                    _TRISA 008C  
                  _TRISB 008D                    _TRISC 008E                    main@i 0028  
                  main@j 0022                    main@k 0020                    main@t 0024  
                  status 0003                    wtemp0 007E        Delay_ms@DELAY_CNT 0070  
       __end_of_Delay_ms 05F0          __initialization 07FD             __end_of_main 07FD  
                 ??_main 0075                   _ANSELA 018C                   _ANSELB 018D  
                 _OSCCON 0099  __end_of__initialization 07FD           __pcstackCOMMON 0070  
              ?_Delay_ms 0070               __pmaintext 05F0               ??_Delay_ms 0072  
                __ptext1 05D7     end_of_initialization 07FD                Delay_ms@i 0073  
    start_initialization 07FD        __size_of_Delay_ms 0019                ___latbits 0003  
          __pcstackBANK0 0020                 _Delay_ms 05D7            __size_of_main 020D  
             _OPTION_REG 0095  
